
Programme principal robot tondeuse.elf:     file format elf32-avr

Sections:
Idx Name          Size      VMA       LMA       File off  Algn
  0 .data         000000be  00800200  00002d94  00002e28  2**0
                  CONTENTS, ALLOC, LOAD, DATA
  1 .text         00002d94  00000000  00000000  00000094  2**1
                  CONTENTS, ALLOC, LOAD, READONLY, CODE
  2 .bss          00000886  008002be  008002be  00002ee6  2**0
                  ALLOC
  3 .comment      0000005c  00000000  00000000  00002ee6  2**0
                  CONTENTS, READONLY
  4 .note.gnu.avr.deviceinfo 00000040  00000000  00000000  00002f44  2**2
                  CONTENTS, READONLY
  5 .debug_aranges 00000300  00000000  00000000  00002f84  2**0
                  CONTENTS, READONLY, DEBUGGING
  6 .debug_info   000030f8  00000000  00000000  00003284  2**0
                  CONTENTS, READONLY, DEBUGGING
  7 .debug_abbrev 0000162e  00000000  00000000  0000637c  2**0
                  CONTENTS, READONLY, DEBUGGING
  8 .debug_line   00002056  00000000  00000000  000079aa  2**0
                  CONTENTS, READONLY, DEBUGGING
  9 .debug_frame  000009cc  00000000  00000000  00009a00  2**2
                  CONTENTS, READONLY, DEBUGGING
 10 .debug_str    000012f8  00000000  00000000  0000a3cc  2**0
                  CONTENTS, READONLY, DEBUGGING
 11 .debug_loc    00002287  00000000  00000000  0000b6c4  2**0
                  CONTENTS, READONLY, DEBUGGING
 12 .debug_ranges 000003b0  00000000  00000000  0000d94b  2**0
                  CONTENTS, READONLY, DEBUGGING

Disassembly of section .text:

00000000 <__vectors>:
       0:	fa c0       	rjmp	.+500    	; 0x1f6 <__ctors_end>
       2:	00 00       	nop
       4:	18 c1       	rjmp	.+560    	; 0x236 <__bad_interrupt>
       6:	00 00       	nop
       8:	16 c1       	rjmp	.+556    	; 0x236 <__bad_interrupt>
       a:	00 00       	nop
       c:	14 c1       	rjmp	.+552    	; 0x236 <__bad_interrupt>
       e:	00 00       	nop
      10:	12 c1       	rjmp	.+548    	; 0x236 <__bad_interrupt>
      12:	00 00       	nop
      14:	10 c1       	rjmp	.+544    	; 0x236 <__bad_interrupt>
      16:	00 00       	nop
      18:	0e c1       	rjmp	.+540    	; 0x236 <__bad_interrupt>
      1a:	00 00       	nop
      1c:	0c c1       	rjmp	.+536    	; 0x236 <__bad_interrupt>
      1e:	00 00       	nop
      20:	0a c1       	rjmp	.+532    	; 0x236 <__bad_interrupt>
      22:	00 00       	nop
      24:	08 c1       	rjmp	.+528    	; 0x236 <__bad_interrupt>
      26:	00 00       	nop
      28:	bc c2       	rjmp	.+1400   	; 0x5a2 <__vector_10>
      2a:	00 00       	nop
      2c:	04 c1       	rjmp	.+520    	; 0x236 <__bad_interrupt>
      2e:	00 00       	nop
      30:	02 c1       	rjmp	.+516    	; 0x236 <__bad_interrupt>
      32:	00 00       	nop
      34:	00 c1       	rjmp	.+512    	; 0x236 <__bad_interrupt>
      36:	00 00       	nop
      38:	fe c0       	rjmp	.+508    	; 0x236 <__bad_interrupt>
      3a:	00 00       	nop
      3c:	fc c0       	rjmp	.+504    	; 0x236 <__bad_interrupt>
      3e:	00 00       	nop
      40:	fa c0       	rjmp	.+500    	; 0x236 <__bad_interrupt>
      42:	00 00       	nop
      44:	f8 c0       	rjmp	.+496    	; 0x236 <__bad_interrupt>
      46:	00 00       	nop
      48:	f6 c0       	rjmp	.+492    	; 0x236 <__bad_interrupt>
      4a:	00 00       	nop
      4c:	f4 c0       	rjmp	.+488    	; 0x236 <__bad_interrupt>
      4e:	00 00       	nop
      50:	f2 c0       	rjmp	.+484    	; 0x236 <__bad_interrupt>
      52:	00 00       	nop
      54:	66 c2       	rjmp	.+1228   	; 0x522 <__vector_21>
      56:	00 00       	nop
      58:	ee c0       	rjmp	.+476    	; 0x236 <__bad_interrupt>
      5a:	00 00       	nop
      5c:	ec c0       	rjmp	.+472    	; 0x236 <__bad_interrupt>
      5e:	00 00       	nop
      60:	ea c0       	rjmp	.+468    	; 0x236 <__bad_interrupt>
      62:	00 00       	nop
      64:	0c 94 1c 09 	jmp	0x1238	; 0x1238 <__vector_25>
      68:	0c 94 e7 08 	jmp	0x11ce	; 0x11ce <__vector_26>
      6c:	e4 c0       	rjmp	.+456    	; 0x236 <__bad_interrupt>
      6e:	00 00       	nop
      70:	e2 c0       	rjmp	.+452    	; 0x236 <__bad_interrupt>
      72:	00 00       	nop
      74:	de c2       	rjmp	.+1468   	; 0x632 <__vector_29>
      76:	00 00       	nop
      78:	de c0       	rjmp	.+444    	; 0x236 <__bad_interrupt>
      7a:	00 00       	nop
      7c:	dc c0       	rjmp	.+440    	; 0x236 <__bad_interrupt>
      7e:	00 00       	nop
      80:	da c0       	rjmp	.+436    	; 0x236 <__bad_interrupt>
      82:	00 00       	nop
      84:	d8 c0       	rjmp	.+432    	; 0x236 <__bad_interrupt>
      86:	00 00       	nop
      88:	d6 c0       	rjmp	.+428    	; 0x236 <__bad_interrupt>
      8a:	00 00       	nop
      8c:	d4 c0       	rjmp	.+424    	; 0x236 <__bad_interrupt>
      8e:	00 00       	nop
      90:	0c 94 21 0a 	jmp	0x1442	; 0x1442 <__vector_36>
      94:	0c 94 ec 09 	jmp	0x13d8	; 0x13d8 <__vector_37>
      98:	ce c0       	rjmp	.+412    	; 0x236 <__bad_interrupt>
      9a:	00 00       	nop
      9c:	cc c0       	rjmp	.+408    	; 0x236 <__bad_interrupt>
      9e:	00 00       	nop
      a0:	ca c0       	rjmp	.+404    	; 0x236 <__bad_interrupt>
      a2:	00 00       	nop
      a4:	c8 c0       	rjmp	.+400    	; 0x236 <__bad_interrupt>
      a6:	00 00       	nop
      a8:	c6 c0       	rjmp	.+396    	; 0x236 <__bad_interrupt>
      aa:	00 00       	nop
      ac:	c4 c0       	rjmp	.+392    	; 0x236 <__bad_interrupt>
      ae:	00 00       	nop
      b0:	c2 c0       	rjmp	.+388    	; 0x236 <__bad_interrupt>
      b2:	00 00       	nop
      b4:	c0 c0       	rjmp	.+384    	; 0x236 <__bad_interrupt>
      b6:	00 00       	nop
      b8:	be c0       	rjmp	.+380    	; 0x236 <__bad_interrupt>
      ba:	00 00       	nop
      bc:	bc c0       	rjmp	.+376    	; 0x236 <__bad_interrupt>
      be:	00 00       	nop
      c0:	ba c0       	rjmp	.+372    	; 0x236 <__bad_interrupt>
      c2:	00 00       	nop
      c4:	b8 c0       	rjmp	.+368    	; 0x236 <__bad_interrupt>
      c6:	00 00       	nop
      c8:	b6 c0       	rjmp	.+364    	; 0x236 <__bad_interrupt>
      ca:	00 00       	nop
      cc:	0c 94 0d 0b 	jmp	0x161a	; 0x161a <__vector_51>
      d0:	0c 94 de 0a 	jmp	0x15bc	; 0x15bc <__vector_52>
      d4:	b0 c0       	rjmp	.+352    	; 0x236 <__bad_interrupt>
      d6:	00 00       	nop
      d8:	ae c0       	rjmp	.+348    	; 0x236 <__bad_interrupt>
      da:	00 00       	nop
      dc:	ac c0       	rjmp	.+344    	; 0x236 <__bad_interrupt>
      de:	00 00       	nop
      e0:	aa c0       	rjmp	.+340    	; 0x236 <__bad_interrupt>
      e2:	00 00       	nop
      e4:	75 0c       	add	r7, r5
      e6:	88 0c       	add	r8, r8
      e8:	9b 0c       	add	r9, r11
      ea:	c1 0c       	add	r12, r1
      ec:	fc 0c       	add	r15, r12
      ee:	0d 0d       	add	r16, r13
      f0:	20 0d       	add	r18, r0
      f2:	49 0d       	add	r20, r9

000000f4 <__trampolines_end>:
      f4:	6e 61       	ori	r22, 0x1E	; 30
      f6:	6e 00       	.word	0x006e	; ????

000000f8 <__c.2332>:
      f8:	69 6e 66 00 00 40 7a 10 f3 5a 00 a0 72 4e 18 09     inf..@z..Z..rN..
     108:	00 10 a5 d4 e8 00 00 e8 76 48 17 00 00 e4 0b 54     ........vH.....T
     118:	02 00 00 ca 9a 3b 00 00 00 e1 f5 05 00 00 80 96     .....;..........
     128:	98 00 00 00 40 42 0f 00 00 00 a0 86 01 00 00 00     ....@B..........
     138:	10 27 00 00 00 00 e8 03 00 00 00 00 64 00 00 00     .'..........d...
     148:	00 00 0a 00 00 00 00 00 01 00 00 00 00 00 2c 76     ..............,v
     158:	d8 88 dc 67 4f 08 23 df c1 df ae 59 e1 b1 b7 96     ...gO.#....Y....
     168:	e5 e3 e4 53 c6 3a e6 51 99 76 96 e8 e6 c2 84 26     ...S.:.Q.v.....&
     178:	eb 89 8c 9b 62 ed 40 7c 6f fc ef bc 9c 9f 40 f2     ....b.@|o.....@.
     188:	ba a5 6f a5 f4 90 05 5a 2a f7 5c 93 6b 6c f9 67     ..o....Z*.\.kl.g
     198:	6d c1 1b fc e0 e4 0d 47 fe f5 20 e6 b5 00 d0 ed     m......G.. .....
     1a8:	90 2e 03 00 94 35 77 05 00 80 84 1e 08 00 00 20     .....5w........ 
     1b8:	4e 0a 00 00 00 c8 0c 33 33 33 33 0f 98 6e 12 83     N......3333..n..
     1c8:	11 41 ef 8d 21 14 89 3b e6 55 16 cf fe e6 db 18     .A..!..;.U......
     1d8:	d1 84 4b 38 1b f7 7c 1d 90 1d a4 bb e4 24 20 32     ..K8..|......$ 2
     1e8:	84 72 5e 22 81 00 c9 f1 24 ec a1 e5 3d 27           .r^"....$...='

000001f6 <__ctors_end>:
     1f6:	11 24       	eor	r1, r1
     1f8:	1f be       	out	0x3f, r1	; 63
     1fa:	cf ef       	ldi	r28, 0xFF	; 255
     1fc:	d1 e2       	ldi	r29, 0x21	; 33
     1fe:	de bf       	out	0x3e, r29	; 62
     200:	cd bf       	out	0x3d, r28	; 61
     202:	00 e0       	ldi	r16, 0x00	; 0
     204:	0c bf       	out	0x3c, r16	; 60

00000206 <__do_copy_data>:
     206:	12 e0       	ldi	r17, 0x02	; 2
     208:	a0 e0       	ldi	r26, 0x00	; 0
     20a:	b2 e0       	ldi	r27, 0x02	; 2
     20c:	e4 e9       	ldi	r30, 0x94	; 148
     20e:	fd e2       	ldi	r31, 0x2D	; 45
     210:	00 e0       	ldi	r16, 0x00	; 0
     212:	0b bf       	out	0x3b, r16	; 59
     214:	02 c0       	rjmp	.+4      	; 0x21a <__do_copy_data+0x14>
     216:	07 90       	elpm	r0, Z+
     218:	0d 92       	st	X+, r0
     21a:	ae 3b       	cpi	r26, 0xBE	; 190
     21c:	b1 07       	cpc	r27, r17
     21e:	d9 f7       	brne	.-10     	; 0x216 <__do_copy_data+0x10>

00000220 <__do_clear_bss>:
     220:	2b e0       	ldi	r18, 0x0B	; 11
     222:	ae eb       	ldi	r26, 0xBE	; 190
     224:	b2 e0       	ldi	r27, 0x02	; 2
     226:	01 c0       	rjmp	.+2      	; 0x22a <.do_clear_bss_start>

00000228 <.do_clear_bss_loop>:
     228:	1d 92       	st	X+, r1

0000022a <.do_clear_bss_start>:
     22a:	a4 34       	cpi	r26, 0x44	; 68
     22c:	b2 07       	cpc	r27, r18
     22e:	e1 f7       	brne	.-8      	; 0x228 <.do_clear_bss_loop>
     230:	84 d3       	rcall	.+1800   	; 0x93a <main>
     232:	0c 94 c8 16 	jmp	0x2d90	; 0x2d90 <_exit>

00000236 <__bad_interrupt>:
     236:	e4 ce       	rjmp	.-568    	; 0x0 <__vectors>

00000238 <_lcdWrite4bits>:
* @return void
*/

void _lcdWrite4bits(uint8_t data, uint8_t rs)
{
	if(rs)
     238:	66 23       	and	r22, r22
     23a:	21 f0       	breq	.+8      	; 0x244 <_lcdWrite4bits+0xc>
	LCD_RS_ON();
     23c:	98 b1       	in	r25, 0x08	; 8
     23e:	94 60       	ori	r25, 0x04	; 4
     240:	98 b9       	out	0x08, r25	; 8
     242:	03 c0       	rjmp	.+6      	; 0x24a <_lcdWrite4bits+0x12>
	else
	LCD_RS_OFF();
     244:	98 b1       	in	r25, 0x08	; 8
     246:	9b 7f       	andi	r25, 0xFB	; 251
     248:	98 b9       	out	0x08, r25	; 8
	
	LCD_E_ON();
     24a:	98 b1       	in	r25, 0x08	; 8
     24c:	90 68       	ori	r25, 0x80	; 128
     24e:	98 b9       	out	0x08, r25	; 8
	
	if(data & 1)
     250:	80 ff       	sbrs	r24, 0
     252:	04 c0       	rjmp	.+8      	; 0x25c <_lcdWrite4bits+0x24>
	LCD_DB4_ON();
     254:	98 b1       	in	r25, 0x08	; 8
     256:	98 60       	ori	r25, 0x08	; 8
     258:	98 b9       	out	0x08, r25	; 8
     25a:	03 c0       	rjmp	.+6      	; 0x262 <_lcdWrite4bits+0x2a>
	else
	LCD_DB4_OFF();
     25c:	98 b1       	in	r25, 0x08	; 8
     25e:	97 7f       	andi	r25, 0xF7	; 247
     260:	98 b9       	out	0x08, r25	; 8
	
	if(data & 2)
     262:	81 ff       	sbrs	r24, 1
     264:	04 c0       	rjmp	.+8      	; 0x26e <_lcdWrite4bits+0x36>
	LCD_DB5_ON();
     266:	98 b1       	in	r25, 0x08	; 8
     268:	90 61       	ori	r25, 0x10	; 16
     26a:	98 b9       	out	0x08, r25	; 8
     26c:	03 c0       	rjmp	.+6      	; 0x274 <_lcdWrite4bits+0x3c>
	else
	LCD_DB5_OFF();
     26e:	98 b1       	in	r25, 0x08	; 8
     270:	9f 7e       	andi	r25, 0xEF	; 239
     272:	98 b9       	out	0x08, r25	; 8
	
	if(data & 4)
     274:	82 ff       	sbrs	r24, 2
     276:	04 c0       	rjmp	.+8      	; 0x280 <_lcdWrite4bits+0x48>
	LCD_DB6_ON();
     278:	98 b1       	in	r25, 0x08	; 8
     27a:	90 62       	ori	r25, 0x20	; 32
     27c:	98 b9       	out	0x08, r25	; 8
     27e:	03 c0       	rjmp	.+6      	; 0x286 <_lcdWrite4bits+0x4e>
	else
	LCD_DB6_OFF();
     280:	98 b1       	in	r25, 0x08	; 8
     282:	9f 7d       	andi	r25, 0xDF	; 223
     284:	98 b9       	out	0x08, r25	; 8
	
	if(data & 8)
     286:	83 ff       	sbrs	r24, 3
     288:	04 c0       	rjmp	.+8      	; 0x292 <_lcdWrite4bits+0x5a>
	LCD_DB7_ON();
     28a:	88 b1       	in	r24, 0x08	; 8
     28c:	80 64       	ori	r24, 0x40	; 64
     28e:	88 b9       	out	0x08, r24	; 8
     290:	03 c0       	rjmp	.+6      	; 0x298 <_lcdWrite4bits+0x60>
	else
	LCD_DB7_OFF();
     292:	88 b1       	in	r24, 0x08	; 8
     294:	8f 7b       	andi	r24, 0xBF	; 191
     296:	88 b9       	out	0x08, r24	; 8
	#else
		//round up by default
		__ticks_dc = (uint32_t)(ceil(fabs(__tmp)));
	#endif

	__builtin_avr_delay_cycles(__ticks_dc);
     298:	85 e0       	ldi	r24, 0x05	; 5
     29a:	8a 95       	dec	r24
     29c:	f1 f7       	brne	.-4      	; 0x29a <_lcdWrite4bits+0x62>
     29e:	00 00       	nop
	
	_delay_us(1);
	
	LCD_E_OFF();
     2a0:	88 b1       	in	r24, 0x08	; 8
     2a2:	8f 77       	andi	r24, 0x7F	; 127
     2a4:	88 b9       	out	0x08, r24	; 8
     2a6:	85 e0       	ldi	r24, 0x05	; 5
     2a8:	8a 95       	dec	r24
     2aa:	f1 f7       	brne	.-4      	; 0x2a8 <_lcdWrite4bits+0x70>
     2ac:	00 00       	nop
     2ae:	08 95       	ret

000002b0 <_lcdWrite8Bits>:
* @param uint8_t rs Recoit la validation et execute la commande data si rs est a 1.
* @return void
*/

void _lcdWrite8Bits(uint8_t data, uint8_t rs)
{
     2b0:	cf 93       	push	r28
     2b2:	df 93       	push	r29
     2b4:	c8 2f       	mov	r28, r24
     2b6:	d6 2f       	mov	r29, r22
	_lcdWrite4bits(data>>4,rs);
     2b8:	82 95       	swap	r24
     2ba:	8f 70       	andi	r24, 0x0F	; 15
     2bc:	bd df       	rcall	.-134    	; 0x238 <_lcdWrite4bits>
	_lcdWrite4bits(data,rs);
     2be:	6d 2f       	mov	r22, r29
     2c0:	8c 2f       	mov	r24, r28
     2c2:	ba df       	rcall	.-140    	; 0x238 <_lcdWrite4bits>
     2c4:	85 ed       	ldi	r24, 0xD5	; 213
     2c6:	8a 95       	dec	r24
     2c8:	f1 f7       	brne	.-4      	; 0x2c6 <_lcdWrite8Bits+0x16>
     2ca:	00 00       	nop
	_delay_us(40);
}
     2cc:	df 91       	pop	r29
     2ce:	cf 91       	pop	r28
     2d0:	08 95       	ret

000002d2 <lcdInit>:
* @return void
*/

void lcdInit()
{
	LCD_RS_INIT();
     2d2:	87 b1       	in	r24, 0x07	; 7
     2d4:	84 60       	ori	r24, 0x04	; 4
     2d6:	87 b9       	out	0x07, r24	; 7
	LCD_E_INIT();
     2d8:	87 b1       	in	r24, 0x07	; 7
     2da:	80 68       	ori	r24, 0x80	; 128
     2dc:	87 b9       	out	0x07, r24	; 7
	LCD_DB4_INIT();
     2de:	87 b1       	in	r24, 0x07	; 7
     2e0:	88 60       	ori	r24, 0x08	; 8
     2e2:	87 b9       	out	0x07, r24	; 7
	LCD_DB5_INIT();
     2e4:	87 b1       	in	r24, 0x07	; 7
     2e6:	80 61       	ori	r24, 0x10	; 16
     2e8:	87 b9       	out	0x07, r24	; 7
	LCD_DB6_INIT();
     2ea:	87 b1       	in	r24, 0x07	; 7
     2ec:	80 62       	ori	r24, 0x20	; 32
     2ee:	87 b9       	out	0x07, r24	; 7
	LCD_DB7_INIT();
     2f0:	87 b1       	in	r24, 0x07	; 7
     2f2:	80 64       	ori	r24, 0x40	; 64
     2f4:	87 b9       	out	0x07, r24	; 7
	#else
		//round up by default
		__ticks_dc = (uint32_t)(ceil(fabs(__tmp)));
	#endif

	__builtin_avr_delay_cycles(__ticks_dc);
     2f6:	2f ef       	ldi	r18, 0xFF	; 255
     2f8:	89 ef       	ldi	r24, 0xF9	; 249
     2fa:	90 e0       	ldi	r25, 0x00	; 0
     2fc:	21 50       	subi	r18, 0x01	; 1
     2fe:	80 40       	sbci	r24, 0x00	; 0
     300:	90 40       	sbci	r25, 0x00	; 0
     302:	e1 f7       	brne	.-8      	; 0x2fc <lcdInit+0x2a>
     304:	00 c0       	rjmp	.+0      	; 0x306 <lcdInit+0x34>
     306:	00 00       	nop
	
	
	_delay_ms(20);
	
	_lcdWrite4bits(3,0);
     308:	60 e0       	ldi	r22, 0x00	; 0
     30a:	83 e0       	ldi	r24, 0x03	; 3
     30c:	95 df       	rcall	.-214    	; 0x238 <_lcdWrite4bits>
     30e:	8f e1       	ldi	r24, 0x1F	; 31
     310:	9e e4       	ldi	r25, 0x4E	; 78
     312:	01 97       	sbiw	r24, 0x01	; 1
     314:	f1 f7       	brne	.-4      	; 0x312 <lcdInit+0x40>
     316:	00 c0       	rjmp	.+0      	; 0x318 <lcdInit+0x46>
     318:	00 00       	nop
	
	_delay_ms(5);
	
	_lcdWrite4bits(3,0);
     31a:	60 e0       	ldi	r22, 0x00	; 0
     31c:	83 e0       	ldi	r24, 0x03	; 3
     31e:	8c df       	rcall	.-232    	; 0x238 <_lcdWrite4bits>
     320:	8f e9       	ldi	r24, 0x9F	; 159
     322:	9f e0       	ldi	r25, 0x0F	; 15
     324:	01 97       	sbiw	r24, 0x01	; 1
     326:	f1 f7       	brne	.-4      	; 0x324 <lcdInit+0x52>
     328:	00 c0       	rjmp	.+0      	; 0x32a <lcdInit+0x58>
     32a:	00 00       	nop
	
	_delay_ms(1);
	
	_lcdWrite4bits(3,0);
     32c:	60 e0       	ldi	r22, 0x00	; 0
     32e:	83 e0       	ldi	r24, 0x03	; 3
     330:	83 df       	rcall	.-250    	; 0x238 <_lcdWrite4bits>
     332:	8f e9       	ldi	r24, 0x9F	; 159
     334:	9f e0       	ldi	r25, 0x0F	; 15
     336:	01 97       	sbiw	r24, 0x01	; 1
     338:	f1 f7       	brne	.-4      	; 0x336 <lcdInit+0x64>
     33a:	00 c0       	rjmp	.+0      	; 0x33c <lcdInit+0x6a>
	
	_delay_ms(1);
	
	_lcdWrite4bits(2,0); // mode 4 bits active
     33c:	00 00       	nop
     33e:	60 e0       	ldi	r22, 0x00	; 0
     340:	82 e0       	ldi	r24, 0x02	; 2
     342:	7a df       	rcall	.-268    	; 0x238 <_lcdWrite4bits>
     344:	8f e9       	ldi	r24, 0x9F	; 159
     346:	9f e0       	ldi	r25, 0x0F	; 15
     348:	01 97       	sbiw	r24, 0x01	; 1
     34a:	f1 f7       	brne	.-4      	; 0x348 <lcdInit+0x76>
     34c:	00 c0       	rjmp	.+0      	; 0x34e <lcdInit+0x7c>
	
	_delay_ms(1);
	
	_lcdWrite8Bits(0x28,0); // mode 4 bits - 2 lignes
     34e:	00 00       	nop
     350:	60 e0       	ldi	r22, 0x00	; 0
     352:	88 e2       	ldi	r24, 0x28	; 40
	
	_lcdWrite8Bits(0x08,0); // LCD a off
     354:	ad df       	rcall	.-166    	; 0x2b0 <_lcdWrite8Bits>
     356:	60 e0       	ldi	r22, 0x00	; 0
     358:	88 e0       	ldi	r24, 0x08	; 8
	
	_lcdWrite8Bits(0x01,0); // Clear LCD
     35a:	aa df       	rcall	.-172    	; 0x2b0 <_lcdWrite8Bits>
     35c:	60 e0       	ldi	r22, 0x00	; 0
     35e:	81 e0       	ldi	r24, 0x01	; 1
     360:	a7 df       	rcall	.-178    	; 0x2b0 <_lcdWrite8Bits>
     362:	8f e3       	ldi	r24, 0x3F	; 63
     364:	9f e1       	ldi	r25, 0x1F	; 31
     366:	01 97       	sbiw	r24, 0x01	; 1
     368:	f1 f7       	brne	.-4      	; 0x366 <lcdInit+0x94>
	
	_delay_ms(2);
	
	_lcdWrite8Bits(0x06,0); // Incremente vers la gauche
     36a:	00 c0       	rjmp	.+0      	; 0x36c <lcdInit+0x9a>
     36c:	00 00       	nop
     36e:	60 e0       	ldi	r22, 0x00	; 0
     370:	86 e0       	ldi	r24, 0x06	; 6
	
	_lcdWrite8Bits(0x0F,0); // LCD a on, curseur a on qui clignote
     372:	9e df       	rcall	.-196    	; 0x2b0 <_lcdWrite8Bits>
     374:	60 e0       	ldi	r22, 0x00	; 0
     376:	8f e0       	ldi	r24, 0x0F	; 15
     378:	9b cf       	rjmp	.-202    	; 0x2b0 <_lcdWrite8Bits>
     37a:	08 95       	ret

0000037c <lcdPutc>:
* @return void
*/

void lcdPutc(char c)
{
	_lcdWrite8Bits(c,1);
     37c:	61 e0       	ldi	r22, 0x01	; 1
     37e:	98 cf       	rjmp	.-208    	; 0x2b0 <_lcdWrite8Bits>
     380:	08 95       	ret

00000382 <lcdPuts>:
* @param str chaine de caracteres (char *) longueur maximum de 255. Recoit la string desirer qu'il va imprimmer sur le LCD.
* @return void
*/

void lcdPuts(char*str)
{
     382:	0f 93       	push	r16
     384:	1f 93       	push	r17
     386:	cf 93       	push	r28
     388:	8c 01       	movw	r16, r24
	for(uint8_t i = 0; str[i] && i < 255 ; i++)
     38a:	c0 e0       	ldi	r28, 0x00	; 0
     38c:	02 c0       	rjmp	.+4      	; 0x392 <lcdPuts+0x10>
	{
		lcdPutc(str[i]);
     38e:	f6 df       	rcall	.-20     	; 0x37c <lcdPutc>
* @return void
*/

void lcdPuts(char*str)
{
	for(uint8_t i = 0; str[i] && i < 255 ; i++)
     390:	cf 5f       	subi	r28, 0xFF	; 255
     392:	f8 01       	movw	r30, r16
     394:	ec 0f       	add	r30, r28
     396:	f1 1d       	adc	r31, r1
     398:	80 81       	ld	r24, Z
     39a:	88 23       	and	r24, r24
     39c:	11 f0       	breq	.+4      	; 0x3a2 <lcdPuts+0x20>
     39e:	cf 3f       	cpi	r28, 0xFF	; 255
     3a0:	b1 f7       	brne	.-20     	; 0x38e <lcdPuts+0xc>
	{
		lcdPutc(str[i]);
	}
}
     3a2:	cf 91       	pop	r28
     3a4:	1f 91       	pop	r17
     3a6:	0f 91       	pop	r16
     3a8:	08 95       	ret

000003aa <lcdSetPos>:

void lcdSetPos(uint8_t x, uint8_t y)
{
	uint8_t cmd = 0x80; // commande pour postionner l'adresse DDRAM
	
	if (y)
     3aa:	61 11       	cpse	r22, r1
     3ac:	02 c0       	rjmp	.+4      	; 0x3b2 <lcdSetPos+0x8>
* @return void
*/

void lcdSetPos(uint8_t x, uint8_t y)
{
	uint8_t cmd = 0x80; // commande pour postionner l'adresse DDRAM
     3ae:	90 e8       	ldi	r25, 0x80	; 128
     3b0:	01 c0       	rjmp	.+2      	; 0x3b4 <lcdSetPos+0xa>
	
	if (y)
	cmd |= (1<<6); // positionner l'adresse a 0x40 pour la ligne 2.
     3b2:	90 ec       	ldi	r25, 0xC0	; 192
	cmd |= (x & 0xF);
     3b4:	8f 70       	andi	r24, 0x0F	; 15
	_lcdWrite8Bits(cmd,0);
     3b6:	60 e0       	ldi	r22, 0x00	; 0
     3b8:	89 2b       	or	r24, r25
     3ba:	7a cf       	rjmp	.-268    	; 0x2b0 <_lcdWrite8Bits>
     3bc:	08 95       	ret

000003be <lcdClearScreen>:
* @brief Cete fonction sert a reset l'ecriture afficher sur le LCD
*/

void lcdClearScreen()
{
	_lcdWrite8Bits(0x01,0); // Clear LCD
     3be:	60 e0       	ldi	r22, 0x00	; 0
     3c0:	81 e0       	ldi	r24, 0x01	; 1
     3c2:	76 df       	rcall	.-276    	; 0x2b0 <_lcdWrite8Bits>
     3c4:	8f e3       	ldi	r24, 0x3F	; 63
     3c6:	9f e1       	ldi	r25, 0x1F	; 31
     3c8:	01 97       	sbiw	r24, 0x01	; 1
     3ca:	f1 f7       	brne	.-4      	; 0x3c8 <lcdClearScreen+0xa>
     3cc:	00 c0       	rjmp	.+0      	; 0x3ce <lcdClearScreen+0x10>
     3ce:	00 00       	nop
     3d0:	08 95       	ret

000003d2 <parseRxLidar>:
uint16_t amp = 0;
uint16_t temp = 0;

uint8_t parseRxLidar(uint8_t u8Data)
{
	switch(state2)
     3d2:	90 91 c8 02 	lds	r25, 0x02C8	; 0x8002c8 <state2>
     3d6:	91 30       	cpi	r25, 0x01	; 1
     3d8:	b1 f0       	breq	.+44     	; 0x406 <__LOCK_REGION_LENGTH__+0x6>
     3da:	30 f0       	brcs	.+12     	; 0x3e8 <parseRxLidar+0x16>
     3dc:	92 30       	cpi	r25, 0x02	; 2
     3de:	21 f1       	breq	.+72     	; 0x428 <__LOCK_REGION_LENGTH__+0x28>
     3e0:	93 30       	cpi	r25, 0x03	; 3
     3e2:	09 f4       	brne	.+2      	; 0x3e6 <parseRxLidar+0x14>
     3e4:	45 c0       	rjmp	.+138    	; 0x470 <__LOCK_REGION_LENGTH__+0x70>
     3e6:	95 c0       	rjmp	.+298    	; 0x512 <__LOCK_REGION_LENGTH__+0x112>
	{
		case DEBUT_TRAME:
		if(u8Data == 0x59)
     3e8:	89 35       	cpi	r24, 0x59	; 89
     3ea:	09 f0       	breq	.+2      	; 0x3ee <parseRxLidar+0x1c>
     3ec:	92 c0       	rjmp	.+292    	; 0x512 <__LOCK_REGION_LENGTH__+0x112>
		{
			checksum = 0;
     3ee:	10 92 c5 02 	sts	0x02C5, r1	; 0x8002c5 <checksum>
			indexPayload2 = 0;
     3f2:	10 92 c6 02 	sts	0x02C6, r1	; 0x8002c6 <indexPayload2>
			indexTrame2 = 0;
			trameLidar[indexTrame2++] = u8Data;
     3f6:	91 e0       	ldi	r25, 0x01	; 1
     3f8:	90 93 c7 02 	sts	0x02C7, r25	; 0x8002c7 <indexTrame2>
     3fc:	80 93 31 03 	sts	0x0331, r24	; 0x800331 <trameLidar>
			state2 = DEBUT_TRAME2;
     400:	90 93 c8 02 	sts	0x02C8, r25	; 0x8002c8 <state2>
     404:	86 c0       	rjmp	.+268    	; 0x512 <__LOCK_REGION_LENGTH__+0x112>
		}
		break;
		
		case DEBUT_TRAME2:
		if(u8Data == 0x59)
     406:	89 35       	cpi	r24, 0x59	; 89
     408:	09 f0       	breq	.+2      	; 0x40c <__LOCK_REGION_LENGTH__+0xc>
     40a:	83 c0       	rjmp	.+262    	; 0x512 <__LOCK_REGION_LENGTH__+0x112>
		{
			trameLidar[indexTrame2++] = u8Data;
     40c:	e0 91 c7 02 	lds	r30, 0x02C7	; 0x8002c7 <indexTrame2>
     410:	91 e0       	ldi	r25, 0x01	; 1
     412:	9e 0f       	add	r25, r30
     414:	90 93 c7 02 	sts	0x02C7, r25	; 0x8002c7 <indexTrame2>
     418:	f0 e0       	ldi	r31, 0x00	; 0
     41a:	ef 5c       	subi	r30, 0xCF	; 207
     41c:	fc 4f       	sbci	r31, 0xFC	; 252
     41e:	80 83       	st	Z, r24
			state2 = DATA;
     420:	82 e0       	ldi	r24, 0x02	; 2
     422:	80 93 c8 02 	sts	0x02C8, r24	; 0x8002c8 <state2>
     426:	75 c0       	rjmp	.+234    	; 0x512 <__LOCK_REGION_LENGTH__+0x112>
		}
		break;
		
		case DATA:
		if(indexPayload2 < TRAME_LIDAR_SIZE)
     428:	90 91 c6 02 	lds	r25, 0x02C6	; 0x8002c6 <indexPayload2>
     42c:	99 30       	cpi	r25, 0x09	; 9
     42e:	58 f4       	brcc	.+22     	; 0x446 <__LOCK_REGION_LENGTH__+0x46>
		{
			trameLidar[indexTrame2++] = u8Data;
     430:	e0 91 c7 02 	lds	r30, 0x02C7	; 0x8002c7 <indexTrame2>
     434:	91 e0       	ldi	r25, 0x01	; 1
     436:	9e 0f       	add	r25, r30
     438:	90 93 c7 02 	sts	0x02C7, r25	; 0x8002c7 <indexTrame2>
     43c:	f0 e0       	ldi	r31, 0x00	; 0
     43e:	ef 5c       	subi	r30, 0xCF	; 207
     440:	fc 4f       	sbci	r31, 0xFC	; 252
     442:	80 83       	st	Z, r24
     444:	03 c0       	rjmp	.+6      	; 0x44c <__LOCK_REGION_LENGTH__+0x4c>
		}
		else
		{
			state2 = CHECK_SUM;
     446:	83 e0       	ldi	r24, 0x03	; 3
     448:	80 93 c8 02 	sts	0x02C8, r24	; 0x8002c8 <state2>
		}
		indexPayload2++;
     44c:	80 91 c6 02 	lds	r24, 0x02C6	; 0x8002c6 <indexPayload2>
     450:	8f 5f       	subi	r24, 0xFF	; 255
     452:	80 93 c6 02 	sts	0x02C6, r24	; 0x8002c6 <indexPayload2>
		break;
     456:	5d c0       	rjmp	.+186    	; 0x512 <__LOCK_REGION_LENGTH__+0x112>
		
		case CHECK_SUM:
		for(uint8_t i = 0;i<8; i++)
		{
			checksum += trameLidar[i];
     458:	e8 2f       	mov	r30, r24
     45a:	f0 e0       	ldi	r31, 0x00	; 0
     45c:	ef 5c       	subi	r30, 0xCF	; 207
     45e:	fc 4f       	sbci	r31, 0xFC	; 252
     460:	90 81       	ld	r25, Z
     462:	20 91 c5 02 	lds	r18, 0x02C5	; 0x8002c5 <checksum>
     466:	92 0f       	add	r25, r18
     468:	90 93 c5 02 	sts	0x02C5, r25	; 0x8002c5 <checksum>
		}
		indexPayload2++;
		break;
		
		case CHECK_SUM:
		for(uint8_t i = 0;i<8; i++)
     46c:	8f 5f       	subi	r24, 0xFF	; 255
     46e:	01 c0       	rjmp	.+2      	; 0x472 <__LOCK_REGION_LENGTH__+0x72>
uint16_t amp = 0;
uint16_t temp = 0;

uint8_t parseRxLidar(uint8_t u8Data)
{
	switch(state2)
     470:	80 e0       	ldi	r24, 0x00	; 0
		}
		indexPayload2++;
		break;
		
		case CHECK_SUM:
		for(uint8_t i = 0;i<8; i++)
     472:	88 30       	cpi	r24, 0x08	; 8
     474:	88 f3       	brcs	.-30     	; 0x458 <__LOCK_REGION_LENGTH__+0x58>
		{
			checksum += trameLidar[i];
		}
		if(trameLidar[8] == checksum)
     476:	90 91 39 03 	lds	r25, 0x0339	; 0x800339 <trameLidar+0x8>
     47a:	80 91 c5 02 	lds	r24, 0x02C5	; 0x8002c5 <checksum>
     47e:	98 13       	cpse	r25, r24
     480:	3d c0       	rjmp	.+122    	; 0x4fc <__LOCK_REGION_LENGTH__+0xfc>
		{
			retour = 1;
     482:	81 e0       	ldi	r24, 0x01	; 1
     484:	80 93 c4 02 	sts	0x02C4, r24	; 0x8002c4 <retour>
			for(uint8_t x = 0; x<9; x++)
     488:	20 e0       	ldi	r18, 0x00	; 0
     48a:	0b c0       	rjmp	.+22     	; 0x4a2 <__LOCK_REGION_LENGTH__+0xa2>
			{
				trameLidarValide[x] = trameLidar[x];
     48c:	82 2f       	mov	r24, r18
     48e:	90 e0       	ldi	r25, 0x00	; 0
     490:	fc 01       	movw	r30, r24
     492:	ef 5c       	subi	r30, 0xCF	; 207
     494:	fc 4f       	sbci	r31, 0xFC	; 252
     496:	30 81       	ld	r19, Z
     498:	fc 01       	movw	r30, r24
     49a:	e8 5d       	subi	r30, 0xD8	; 216
     49c:	fc 4f       	sbci	r31, 0xFC	; 252
     49e:	30 83       	st	Z, r19
			checksum += trameLidar[i];
		}
		if(trameLidar[8] == checksum)
		{
			retour = 1;
			for(uint8_t x = 0; x<9; x++)
     4a0:	2f 5f       	subi	r18, 0xFF	; 255
     4a2:	29 30       	cpi	r18, 0x09	; 9
     4a4:	98 f3       	brcs	.-26     	; 0x48c <__LOCK_REGION_LENGTH__+0x8c>
			{
				trameLidarValide[x] = trameLidar[x];
			}
			dist = trameLidarValide[2] + (trameLidarValide[3]<<8);
     4a6:	e8 e2       	ldi	r30, 0x28	; 40
     4a8:	f3 e0       	ldi	r31, 0x03	; 3
     4aa:	22 81       	ldd	r18, Z+2	; 0x02
     4ac:	83 81       	ldd	r24, Z+3	; 0x03
     4ae:	90 e0       	ldi	r25, 0x00	; 0
     4b0:	98 2f       	mov	r25, r24
     4b2:	88 27       	eor	r24, r24
     4b4:	82 0f       	add	r24, r18
     4b6:	91 1d       	adc	r25, r1
     4b8:	90 93 c3 02 	sts	0x02C3, r25	; 0x8002c3 <dist+0x1>
     4bc:	80 93 c2 02 	sts	0x02C2, r24	; 0x8002c2 <dist>
			amp = trameLidarValide[4] + (trameLidarValide[5]<<8);
     4c0:	24 81       	ldd	r18, Z+4	; 0x04
     4c2:	85 81       	ldd	r24, Z+5	; 0x05
     4c4:	90 e0       	ldi	r25, 0x00	; 0
     4c6:	98 2f       	mov	r25, r24
     4c8:	88 27       	eor	r24, r24
     4ca:	82 0f       	add	r24, r18
     4cc:	91 1d       	adc	r25, r1
     4ce:	90 93 c1 02 	sts	0x02C1, r25	; 0x8002c1 <amp+0x1>
     4d2:	80 93 c0 02 	sts	0x02C0, r24	; 0x8002c0 <amp>
			temp = trameLidarValide[6] + (trameLidarValide[7]<<8);
     4d6:	26 81       	ldd	r18, Z+6	; 0x06
     4d8:	87 81       	ldd	r24, Z+7	; 0x07
     4da:	90 e0       	ldi	r25, 0x00	; 0
     4dc:	98 2f       	mov	r25, r24
     4de:	88 27       	eor	r24, r24
     4e0:	82 0f       	add	r24, r18
     4e2:	91 1d       	adc	r25, r1
			temp = (temp / 8) - 256;
     4e4:	96 95       	lsr	r25
     4e6:	87 95       	ror	r24
     4e8:	96 95       	lsr	r25
     4ea:	87 95       	ror	r24
     4ec:	96 95       	lsr	r25
     4ee:	87 95       	ror	r24
     4f0:	9a 95       	dec	r25
     4f2:	90 93 bf 02 	sts	0x02BF, r25	; 0x8002bf <__data_end+0x1>
     4f6:	80 93 be 02 	sts	0x02BE, r24	; 0x8002be <__data_end>
     4fa:	02 c0       	rjmp	.+4      	; 0x500 <__LOCK_REGION_LENGTH__+0x100>
		}
		else
		{
			retour = 0;
     4fc:	10 92 c4 02 	sts	0x02C4, r1	; 0x8002c4 <retour>
		}
		memset(trameLidar, 0, sizeof(trameLidar));
     500:	89 e0       	ldi	r24, 0x09	; 9
     502:	e1 e3       	ldi	r30, 0x31	; 49
     504:	f3 e0       	ldi	r31, 0x03	; 3
     506:	df 01       	movw	r26, r30
     508:	1d 92       	st	X+, r1
     50a:	8a 95       	dec	r24
     50c:	e9 f7       	brne	.-6      	; 0x508 <__LOCK_REGION_LENGTH__+0x108>
		state2 = DEBUT_TRAME;
     50e:	10 92 c8 02 	sts	0x02C8, r1	; 0x8002c8 <state2>
		break;
	}
	return retour;
}
     512:	80 91 c4 02 	lds	r24, 0x02C4	; 0x8002c4 <retour>
     516:	08 95       	ret

00000518 <getDist>:

uint16_t getDist()
{
	return dist;
}
     518:	80 91 c2 02 	lds	r24, 0x02C2	; 0x8002c2 <dist>
     51c:	90 91 c3 02 	lds	r25, 0x02C3	; 0x8002c3 <dist+0x1>
     520:	08 95       	ret

00000522 <__vector_21>:

/**
* @brief //A chaque interruption du timer 0 le programme execute DixiemeDeSec++ comme ca on verifie l'etat des boutons a chaque 100ms.
*/
ISR(TIMER0_COMPA_vect)//Quand l'interruption globale est appeller le programme vient executer le vecteur Comparatif.
{
     522:	1f 92       	push	r1
     524:	0f 92       	push	r0
     526:	0f b6       	in	r0, 0x3f	; 63
     528:	0f 92       	push	r0
     52a:	11 24       	eor	r1, r1
     52c:	2f 93       	push	r18
     52e:	8f 93       	push	r24
     530:	9f 93       	push	r25
	cntDixiemeDeSec++;
     532:	80 91 cd 02 	lds	r24, 0x02CD	; 0x8002cd <cntDixiemeDeSec>
     536:	8f 5f       	subi	r24, 0xFF	; 255
     538:	80 93 cd 02 	sts	0x02CD, r24	; 0x8002cd <cntDixiemeDeSec>
	cntDixiemeDeSecLCD++;
     53c:	80 91 cb 02 	lds	r24, 0x02CB	; 0x8002cb <cntDixiemeDeSecLCD>
     540:	90 91 cc 02 	lds	r25, 0x02CC	; 0x8002cc <cntDixiemeDeSecLCD+0x1>
     544:	01 96       	adiw	r24, 0x01	; 1
     546:	90 93 cc 02 	sts	0x02CC, r25	; 0x8002cc <cntDixiemeDeSecLCD+0x1>
     54a:	80 93 cb 02 	sts	0x02CB, r24	; 0x8002cb <cntDixiemeDeSecLCD>
	if(cntDixiemeDeSec >= 100)
     54e:	80 91 cd 02 	lds	r24, 0x02CD	; 0x8002cd <cntDixiemeDeSec>
     552:	84 36       	cpi	r24, 0x64	; 100
     554:	50 f0       	brcs	.+20     	; 0x56a <__vector_21+0x48>
	{
		cntDixiemeDeSec -= 100;
     556:	80 91 cd 02 	lds	r24, 0x02CD	; 0x8002cd <cntDixiemeDeSec>
     55a:	84 56       	subi	r24, 0x64	; 100
     55c:	80 93 cd 02 	sts	0x02CD, r24	; 0x8002cd <cntDixiemeDeSec>
		refreshManuel = 1;
     560:	81 e0       	ldi	r24, 0x01	; 1
     562:	80 93 00 02 	sts	0x0200, r24	; 0x800200 <__DATA_REGION_ORIGIN__>
		refreshClavier = 1;
     566:	80 93 ca 02 	sts	0x02CA, r24	; 0x8002ca <refreshClavier>
	}
	if(cntDixiemeDeSecLCD >= 500)
     56a:	80 91 cb 02 	lds	r24, 0x02CB	; 0x8002cb <cntDixiemeDeSecLCD>
     56e:	90 91 cc 02 	lds	r25, 0x02CC	; 0x8002cc <cntDixiemeDeSecLCD+0x1>
     572:	84 3f       	cpi	r24, 0xF4	; 244
     574:	91 40       	sbci	r25, 0x01	; 1
     576:	68 f0       	brcs	.+26     	; 0x592 <__vector_21+0x70>
	{
		cntDixiemeDeSecLCD -= 500;
     578:	80 91 cb 02 	lds	r24, 0x02CB	; 0x8002cb <cntDixiemeDeSecLCD>
     57c:	90 91 cc 02 	lds	r25, 0x02CC	; 0x8002cc <cntDixiemeDeSecLCD+0x1>
     580:	84 5f       	subi	r24, 0xF4	; 244
     582:	91 40       	sbci	r25, 0x01	; 1
     584:	90 93 cc 02 	sts	0x02CC, r25	; 0x8002cc <cntDixiemeDeSecLCD+0x1>
     588:	80 93 cb 02 	sts	0x02CB, r24	; 0x8002cb <cntDixiemeDeSecLCD>
		refreshLCD = 1;
     58c:	81 e0       	ldi	r24, 0x01	; 1
     58e:	80 93 c9 02 	sts	0x02C9, r24	; 0x8002c9 <refreshLCD>
	}
}
     592:	9f 91       	pop	r25
     594:	8f 91       	pop	r24
     596:	2f 91       	pop	r18
     598:	0f 90       	pop	r0
     59a:	0f be       	out	0x3f, r0	; 63
     59c:	0f 90       	pop	r0
     59e:	1f 90       	pop	r1
     5a0:	18 95       	reti

000005a2 <__vector_10>:
ISR(PCINT1_vect)//A chaque detection du capteur une interruption se fait sur PCINT4 et PCINT5 qui correspond a la PINB4 et PINB5 du atmega32u4
{
     5a2:	1f 92       	push	r1
     5a4:	0f 92       	push	r0
     5a6:	0f b6       	in	r0, 0x3f	; 63
     5a8:	0f 92       	push	r0
     5aa:	11 24       	eor	r1, r1
     5ac:	0b b6       	in	r0, 0x3b	; 59
     5ae:	0f 92       	push	r0
     5b0:	8f 93       	push	r24
     5b2:	9f 93       	push	r25
     5b4:	ef 93       	push	r30
     5b6:	ff 93       	push	r31
	if(!(PINJ&(1<<3))&&(encodeurEtatPrecedent & (1<<3)))//si l'etat du capteur est low et qu'il y eu une detection comme etat precedant
     5b8:	80 91 03 01 	lds	r24, 0x0103	; 0x800103 <__TEXT_REGION_LENGTH__+0x7c0103>
     5bc:	83 fd       	sbrc	r24, 3
     5be:	10 c0       	rjmp	.+32     	; 0x5e0 <__vector_10+0x3e>
     5c0:	80 91 e9 02 	lds	r24, 0x02E9	; 0x8002e9 <encodeurEtatPrecedent>
     5c4:	83 ff       	sbrs	r24, 3
     5c6:	0c c0       	rjmp	.+24     	; 0x5e0 <__vector_10+0x3e>
	{
		encodeurDCnt++;//le compteur d'enchoches s'incremente
     5c8:	80 91 e4 02 	lds	r24, 0x02E4	; 0x8002e4 <encodeurDCnt>
     5cc:	90 91 e5 02 	lds	r25, 0x02E5	; 0x8002e5 <encodeurDCnt+0x1>
     5d0:	01 96       	adiw	r24, 0x01	; 1
     5d2:	90 93 e5 02 	sts	0x02E5, r25	; 0x8002e5 <encodeurDCnt+0x1>
     5d6:	80 93 e4 02 	sts	0x02E4, r24	; 0x8002e4 <encodeurDCnt>
		refreshDist = 1;//on active le refresh l'affichache sur le LCD
     5da:	81 e0       	ldi	r24, 0x01	; 1
     5dc:	80 93 05 02 	sts	0x0205, r24	; 0x800205 <refreshDist>
	}
	encodeurEtatPrecedent = PINJ&(1<<3);
     5e0:	e3 e0       	ldi	r30, 0x03	; 3
     5e2:	f1 e0       	ldi	r31, 0x01	; 1
     5e4:	80 81       	ld	r24, Z
     5e6:	88 70       	andi	r24, 0x08	; 8
     5e8:	80 93 e9 02 	sts	0x02E9, r24	; 0x8002e9 <encodeurEtatPrecedent>
	if(!(PINJ&(1<<4))&&(encodeurEtatPrecedent2 & (1<<4)))//si l'etat du capteur est low et qu'il y eu une detection comme etat precedant
     5ec:	80 81       	ld	r24, Z
     5ee:	84 fd       	sbrc	r24, 4
     5f0:	10 c0       	rjmp	.+32     	; 0x612 <__vector_10+0x70>
     5f2:	80 91 e8 02 	lds	r24, 0x02E8	; 0x8002e8 <encodeurEtatPrecedent2>
     5f6:	84 ff       	sbrs	r24, 4
     5f8:	0c c0       	rjmp	.+24     	; 0x612 <__vector_10+0x70>
	{
		encodeurGCnt++;//le compteur d'enchoches s'incremente
     5fa:	80 91 e6 02 	lds	r24, 0x02E6	; 0x8002e6 <encodeurGCnt>
     5fe:	90 91 e7 02 	lds	r25, 0x02E7	; 0x8002e7 <encodeurGCnt+0x1>
     602:	01 96       	adiw	r24, 0x01	; 1
     604:	90 93 e7 02 	sts	0x02E7, r25	; 0x8002e7 <encodeurGCnt+0x1>
     608:	80 93 e6 02 	sts	0x02E6, r24	; 0x8002e6 <encodeurGCnt>
		refreshDist = 1;//on active le refresh l'affichache sur la console
     60c:	81 e0       	ldi	r24, 0x01	; 1
     60e:	80 93 05 02 	sts	0x0205, r24	; 0x800205 <refreshDist>
	}
	encodeurEtatPrecedent2 = PINJ&(1<<4);
     612:	80 91 03 01 	lds	r24, 0x0103	; 0x800103 <__TEXT_REGION_LENGTH__+0x7c0103>
     616:	80 71       	andi	r24, 0x10	; 16
     618:	80 93 e8 02 	sts	0x02E8, r24	; 0x8002e8 <encodeurEtatPrecedent2>
}
     61c:	ff 91       	pop	r31
     61e:	ef 91       	pop	r30
     620:	9f 91       	pop	r25
     622:	8f 91       	pop	r24
     624:	0f 90       	pop	r0
     626:	0b be       	out	0x3b, r0	; 59
     628:	0f 90       	pop	r0
     62a:	0f be       	out	0x3f, r0	; 63
     62c:	0f 90       	pop	r0
     62e:	1f 90       	pop	r1
     630:	18 95       	reti

00000632 <__vector_29>:

ISR(ADC_vect)
{
     632:	1f 92       	push	r1
     634:	0f 92       	push	r0
     636:	0f b6       	in	r0, 0x3f	; 63
     638:	0f 92       	push	r0
     63a:	11 24       	eor	r1, r1
     63c:	0b b6       	in	r0, 0x3b	; 59
     63e:	0f 92       	push	r0
     640:	2f 93       	push	r18
     642:	3f 93       	push	r19
     644:	8f 93       	push	r24
     646:	9f 93       	push	r25
     648:	ef 93       	push	r30
     64a:	ff 93       	push	r31
	receptionAdc=ADC;
     64c:	20 91 78 00 	lds	r18, 0x0078	; 0x800078 <__TEXT_REGION_LENGTH__+0x7c0078>
     650:	30 91 79 00 	lds	r19, 0x0079	; 0x800079 <__TEXT_REGION_LENGTH__+0x7c0079>
     654:	30 93 df 02 	sts	0x02DF, r19	; 0x8002df <receptionAdc+0x1>
     658:	20 93 de 02 	sts	0x02DE, r18	; 0x8002de <receptionAdc>
	triAdc=((ADCSRB&&0x8)<<5)|(ADMUX&0x1F);
     65c:	80 91 7b 00 	lds	r24, 0x007B	; 0x80007b <__TEXT_REGION_LENGTH__+0x7c007b>
     660:	88 23       	and	r24, r24
     662:	19 f0       	breq	.+6      	; 0x66a <__vector_29+0x38>
     664:	81 e0       	ldi	r24, 0x01	; 1
     666:	90 e0       	ldi	r25, 0x00	; 0
     668:	02 c0       	rjmp	.+4      	; 0x66e <__vector_29+0x3c>
     66a:	80 e0       	ldi	r24, 0x00	; 0
     66c:	90 e0       	ldi	r25, 0x00	; 0
     66e:	88 0f       	add	r24, r24
     670:	99 1f       	adc	r25, r25
     672:	82 95       	swap	r24
     674:	92 95       	swap	r25
     676:	90 7f       	andi	r25, 0xF0	; 240
     678:	98 27       	eor	r25, r24
     67a:	80 7f       	andi	r24, 0xF0	; 240
     67c:	98 27       	eor	r25, r24
     67e:	90 91 7c 00 	lds	r25, 0x007C	; 0x80007c <__TEXT_REGION_LENGTH__+0x7c007c>
     682:	9f 71       	andi	r25, 0x1F	; 31
     684:	89 2b       	or	r24, r25
     686:	80 93 dd 02 	sts	0x02DD, r24	; 0x8002dd <triAdc>
	switch(triAdc)
     68a:	81 30       	cpi	r24, 0x01	; 1
     68c:	51 f0       	breq	.+20     	; 0x6a2 <__vector_29+0x70>
     68e:	28 f0       	brcs	.+10     	; 0x69a <__vector_29+0x68>
     690:	82 30       	cpi	r24, 0x02	; 2
     692:	81 f0       	breq	.+32     	; 0x6b4 <__vector_29+0x82>
     694:	80 32       	cpi	r24, 0x20	; 32
     696:	e1 f0       	breq	.+56     	; 0x6d0 <__vector_29+0x9e>
     698:	23 c0       	rjmp	.+70     	; 0x6e0 <__vector_29+0xae>
	{
		case 0x0:
		// 		sprintf(msg,"p:%d",receptionAdc);
		// 		lcdSetPos(8,0);
		// 		lcdPuts(msg);
		ADMUX=0x41;
     69a:	81 e4       	ldi	r24, 0x41	; 65
     69c:	80 93 7c 00 	sts	0x007C, r24	; 0x80007c <__TEXT_REGION_LENGTH__+0x7c007c>
		break;
     6a0:	1f c0       	rjmp	.+62     	; 0x6e0 <__vector_29+0xae>

		case 0x1:
		joysticX=receptionAdc-512;
     6a2:	32 50       	subi	r19, 0x02	; 2
     6a4:	30 93 e3 02 	sts	0x02E3, r19	; 0x8002e3 <joysticX+0x1>
     6a8:	20 93 e2 02 	sts	0x02E2, r18	; 0x8002e2 <joysticX>
		// 		lcdPuts("      ");
		// 		sprintf(msg,"x:%d",joysticX);
		// 		lcdSetPos(0,0);
		// 		lcdPuts(msg);

		ADMUX=0x42;
     6ac:	82 e4       	ldi	r24, 0x42	; 66
     6ae:	80 93 7c 00 	sts	0x007C, r24	; 0x80007c <__TEXT_REGION_LENGTH__+0x7c007c>
		break;
     6b2:	16 c0       	rjmp	.+44     	; 0x6e0 <__vector_29+0xae>

		case 0x2:
		joysticY=receptionAdc-512;
     6b4:	32 50       	subi	r19, 0x02	; 2
     6b6:	30 93 e1 02 	sts	0x02E1, r19	; 0x8002e1 <joysticY+0x1>
     6ba:	20 93 e0 02 	sts	0x02E0, r18	; 0x8002e0 <joysticY>
		// 		sprintf(msg,"y:%d",joysticY);
		// 		lcdSetPos(0,1);
		// 		lcdPuts("      ");
		// 		lcdSetPos(0,1);
		// 		lcdPuts(msg);
		ADMUX=0x40;
     6be:	80 e4       	ldi	r24, 0x40	; 64
     6c0:	80 93 7c 00 	sts	0x007C, r24	; 0x80007c <__TEXT_REGION_LENGTH__+0x7c007c>
		ADCSRB|=(1<<MUX5);
     6c4:	eb e7       	ldi	r30, 0x7B	; 123
     6c6:	f0 e0       	ldi	r31, 0x00	; 0
     6c8:	80 81       	ld	r24, Z
     6ca:	88 60       	ori	r24, 0x08	; 8
     6cc:	80 83       	st	Z, r24
		break;
     6ce:	08 c0       	rjmp	.+16     	; 0x6e0 <__vector_29+0xae>

		case 0x20:
		// 		sprintf(msg,"b:%d",receptionAdc);
		// 		lcdSetPos(8,1);
		// 		lcdPuts(msg);
		ADMUX=0x40;
     6d0:	80 e4       	ldi	r24, 0x40	; 64
     6d2:	80 93 7c 00 	sts	0x007C, r24	; 0x80007c <__TEXT_REGION_LENGTH__+0x7c007c>
		ADCSRB&=~(1<<MUX5);
     6d6:	eb e7       	ldi	r30, 0x7B	; 123
     6d8:	f0 e0       	ldi	r31, 0x00	; 0
     6da:	80 81       	ld	r24, Z
     6dc:	87 7f       	andi	r24, 0xF7	; 247
     6de:	80 83       	st	Z, r24
		break;

		default:
		break;
	}
	ADCSRA|=(1<<ADSC);
     6e0:	ea e7       	ldi	r30, 0x7A	; 122
     6e2:	f0 e0       	ldi	r31, 0x00	; 0
     6e4:	80 81       	ld	r24, Z
     6e6:	80 64       	ori	r24, 0x40	; 64
     6e8:	80 83       	st	Z, r24
}
     6ea:	ff 91       	pop	r31
     6ec:	ef 91       	pop	r30
     6ee:	9f 91       	pop	r25
     6f0:	8f 91       	pop	r24
     6f2:	3f 91       	pop	r19
     6f4:	2f 91       	pop	r18
     6f6:	0f 90       	pop	r0
     6f8:	0b be       	out	0x3b, r0	; 59
     6fa:	0f 90       	pop	r0
     6fc:	0f be       	out	0x3f, r0	; 63
     6fe:	0f 90       	pop	r0
     700:	1f 90       	pop	r1
     702:	18 95       	reti

00000704 <adcInit>:

/*Definition des fonctions*/

void adcInit()
{
	ADMUX|=(1<<REFS0);//10 bit et compare avec vcc
     704:	ec e7       	ldi	r30, 0x7C	; 124
     706:	f0 e0       	ldi	r31, 0x00	; 0
     708:	80 81       	ld	r24, Z
     70a:	80 64       	ori	r24, 0x40	; 64
     70c:	80 83       	st	Z, r24
	ADCSRA|=(1<<ADEN)|(1<<ADIE)|(1<<ADPS2);//divise le clock par 32 et active l'adc
     70e:	ea e7       	ldi	r30, 0x7A	; 122
     710:	f0 e0       	ldi	r31, 0x00	; 0
     712:	80 81       	ld	r24, Z
     714:	8c 68       	ori	r24, 0x8C	; 140
     716:	80 83       	st	Z, r24

	DIDR0|=0x06;//mets les sortie en adc 1 et adc 2
     718:	ee e7       	ldi	r30, 0x7E	; 126
     71a:	f0 e0       	ldi	r31, 0x00	; 0
     71c:	80 81       	ld	r24, Z
     71e:	86 60       	ori	r24, 0x06	; 6
     720:	80 83       	st	Z, r24
	DIDR2|=0x01;//mets la pin en adc8
     722:	ed e7       	ldi	r30, 0x7D	; 125
     724:	f0 e0       	ldi	r31, 0x00	; 0
     726:	80 81       	ld	r24, Z
     728:	81 60       	ori	r24, 0x01	; 1
     72a:	80 83       	st	Z, r24
	sei();
     72c:	78 94       	sei
     72e:	08 95       	ret

00000730 <moteurInit>:
}
void moteurInit()
{
	DDRH|=(1<<4)|(1<<5);//moteur arrière2
     730:	e1 e0       	ldi	r30, 0x01	; 1
     732:	f1 e0       	ldi	r31, 0x01	; 1
     734:	80 81       	ld	r24, Z
     736:	80 63       	ori	r24, 0x30	; 48
     738:	80 83       	st	Z, r24

	TCCR4A=0b10101011;
     73a:	3b ea       	ldi	r19, 0xAB	; 171
     73c:	30 93 a0 00 	sts	0x00A0, r19	; 0x8000a0 <__TEXT_REGION_LENGTH__+0x7c00a0>
	TCCR4B=0b00011001;
     740:	29 e1       	ldi	r18, 0x19	; 25
     742:	20 93 a1 00 	sts	0x00A1, r18	; 0x8000a1 <__TEXT_REGION_LENGTH__+0x7c00a1>
	OCR4A=1024;//top
     746:	80 e0       	ldi	r24, 0x00	; 0
     748:	94 e0       	ldi	r25, 0x04	; 4
     74a:	90 93 a9 00 	sts	0x00A9, r25	; 0x8000a9 <__TEXT_REGION_LENGTH__+0x7c00a9>
     74e:	80 93 a8 00 	sts	0x00A8, r24	; 0x8000a8 <__TEXT_REGION_LENGTH__+0x7c00a8>
	OCR4B=70;
     752:	46 e4       	ldi	r20, 0x46	; 70
     754:	50 e0       	ldi	r21, 0x00	; 0
     756:	50 93 ab 00 	sts	0x00AB, r21	; 0x8000ab <__TEXT_REGION_LENGTH__+0x7c00ab>
     75a:	40 93 aa 00 	sts	0x00AA, r20	; 0x8000aa <__TEXT_REGION_LENGTH__+0x7c00aa>
	OCR4C=0;
     75e:	10 92 ad 00 	sts	0x00AD, r1	; 0x8000ad <__TEXT_REGION_LENGTH__+0x7c00ad>
     762:	10 92 ac 00 	sts	0x00AC, r1	; 0x8000ac <__TEXT_REGION_LENGTH__+0x7c00ac>

	DDRL|=(1<<4)|(1<<5);//moteur arrière 1
     766:	ea e0       	ldi	r30, 0x0A	; 10
     768:	f1 e0       	ldi	r31, 0x01	; 1
     76a:	40 81       	ld	r20, Z
     76c:	40 63       	ori	r20, 0x30	; 48
     76e:	40 83       	st	Z, r20
	TCCR5A=0b10101011;
     770:	30 93 20 01 	sts	0x0120, r19	; 0x800120 <__TEXT_REGION_LENGTH__+0x7c0120>
	TCCR5B=0b00011001;
     774:	20 93 21 01 	sts	0x0121, r18	; 0x800121 <__TEXT_REGION_LENGTH__+0x7c0121>
	OCR5A=1024;//top
     778:	90 93 29 01 	sts	0x0129, r25	; 0x800129 <__TEXT_REGION_LENGTH__+0x7c0129>
     77c:	80 93 28 01 	sts	0x0128, r24	; 0x800128 <__TEXT_REGION_LENGTH__+0x7c0128>
	OCR5B=90;
     780:	6a e5       	ldi	r22, 0x5A	; 90
     782:	70 e0       	ldi	r23, 0x00	; 0
     784:	70 93 2b 01 	sts	0x012B, r23	; 0x80012b <__TEXT_REGION_LENGTH__+0x7c012b>
     788:	60 93 2a 01 	sts	0x012A, r22	; 0x80012a <__TEXT_REGION_LENGTH__+0x7c012a>
	OCR5C=0;
     78c:	10 92 2d 01 	sts	0x012D, r1	; 0x80012d <__TEXT_REGION_LENGTH__+0x7c012d>
     790:	10 92 2c 01 	sts	0x012C, r1	; 0x80012c <__TEXT_REGION_LENGTH__+0x7c012c>
	
	DDRB|=(1<<6); //moteur pour la lame
     794:	44 b1       	in	r20, 0x04	; 4
     796:	40 64       	ori	r20, 0x40	; 64
     798:	44 b9       	out	0x04, r20	; 4
	TCCR1A=0b10101011;
     79a:	30 93 80 00 	sts	0x0080, r19	; 0x800080 <__TEXT_REGION_LENGTH__+0x7c0080>
	TCCR1B=0b00011001;
     79e:	20 93 81 00 	sts	0x0081, r18	; 0x800081 <__TEXT_REGION_LENGTH__+0x7c0081>
	OCR1A=1024;//top
     7a2:	90 93 89 00 	sts	0x0089, r25	; 0x800089 <__TEXT_REGION_LENGTH__+0x7c0089>
     7a6:	80 93 88 00 	sts	0x0088, r24	; 0x800088 <__TEXT_REGION_LENGTH__+0x7c0088>
	OCR1B=90;
     7aa:	70 93 8b 00 	sts	0x008B, r23	; 0x80008b <__TEXT_REGION_LENGTH__+0x7c008b>
     7ae:	60 93 8a 00 	sts	0x008A, r22	; 0x80008a <__TEXT_REGION_LENGTH__+0x7c008a>
	OCR1C=0;
     7b2:	10 92 8d 00 	sts	0x008D, r1	; 0x80008d <__TEXT_REGION_LENGTH__+0x7c008d>
     7b6:	10 92 8c 00 	sts	0x008C, r1	; 0x80008c <__TEXT_REGION_LENGTH__+0x7c008c>
     7ba:	08 95       	ret

000007bc <lireClavier>:
}
char lireClavier()
{
	char digit = 0;
	
	if(BT1())
     7bc:	01 9b       	sbis	0x00, 1	; 0
     7be:	08 c0       	rjmp	.+16     	; 0x7d0 <lireClavier+0x14>
	{
		digit = '1';
	}
	else if(BT2())
     7c0:	00 9b       	sbis	0x00, 0	; 0
     7c2:	08 c0       	rjmp	.+16     	; 0x7d4 <lireClavier+0x18>
	{
		digit = '2';
	}
	else if(BT3())
     7c4:	03 9b       	sbis	0x00, 3	; 0
     7c6:	08 c0       	rjmp	.+16     	; 0x7d8 <lireClavier+0x1c>
	{
		digit = '3';
	}
	else if(BT4())
     7c8:	02 9b       	sbis	0x00, 2	; 0
     7ca:	08 c0       	rjmp	.+16     	; 0x7dc <lireClavier+0x20>
	OCR1B=90;
	OCR1C=0;
}
char lireClavier()
{
	char digit = 0;
     7cc:	80 e0       	ldi	r24, 0x00	; 0
     7ce:	08 95       	ret
	
	if(BT1())
	{
		digit = '1';
     7d0:	81 e3       	ldi	r24, 0x31	; 49
     7d2:	08 95       	ret
	}
	else if(BT2())
	{
		digit = '2';
     7d4:	82 e3       	ldi	r24, 0x32	; 50
     7d6:	08 95       	ret
	}
	else if(BT3())
	{
		digit = '3';
     7d8:	83 e3       	ldi	r24, 0x33	; 51
     7da:	08 95       	ret
	}
	else if(BT4())
	{
		digit = '4';
     7dc:	84 e3       	ldi	r24, 0x34	; 52
	}
	return digit;
}
     7de:	08 95       	ret

000007e0 <controleManuel>:

void controleManuel()
{
	if(refreshManuel)
     7e0:	80 91 00 02 	lds	r24, 0x0200	; 0x800200 <__DATA_REGION_ORIGIN__>
     7e4:	88 23       	and	r24, r24
     7e6:	09 f4       	brne	.+2      	; 0x7ea <controleManuel+0xa>
     7e8:	a7 c0       	rjmp	.+334    	; 0x938 <controleManuel+0x158>
	{
		refreshManuel = 0;
     7ea:	10 92 00 02 	sts	0x0200, r1	; 0x800200 <__DATA_REGION_ORIGIN__>
		if(joysticY<0)
     7ee:	80 91 e0 02 	lds	r24, 0x02E0	; 0x8002e0 <joysticY>
     7f2:	90 91 e1 02 	lds	r25, 0x02E1	; 0x8002e1 <joysticY+0x1>
     7f6:	99 23       	and	r25, r25
     7f8:	0c f0       	brlt	.+2      	; 0x7fc <controleManuel+0x1c>
     7fa:	53 c0       	rjmp	.+166    	; 0x8a2 <controleManuel+0xc2>
		{
			joysticY*=-1;
     7fc:	91 95       	neg	r25
     7fe:	81 95       	neg	r24
     800:	91 09       	sbc	r25, r1
     802:	90 93 e1 02 	sts	0x02E1, r25	; 0x8002e1 <joysticY+0x1>
     806:	80 93 e0 02 	sts	0x02E0, r24	; 0x8002e0 <joysticY>

			if(joysticX>0)
     80a:	20 91 e2 02 	lds	r18, 0x02E2	; 0x8002e2 <joysticX>
     80e:	30 91 e3 02 	lds	r19, 0x02E3	; 0x8002e3 <joysticX+0x1>
     812:	12 16       	cp	r1, r18
     814:	13 06       	cpc	r1, r19
     816:	64 f4       	brge	.+24     	; 0x830 <controleManuel+0x50>
			{
				vitesseMoteurG=joysticY-joysticX;
     818:	ac 01       	movw	r20, r24
     81a:	42 1b       	sub	r20, r18
     81c:	53 0b       	sbc	r21, r19
     81e:	50 93 dc 02 	sts	0x02DC, r21	; 0x8002dc <vitesseMoteurG+0x1>
     822:	40 93 db 02 	sts	0x02DB, r20	; 0x8002db <vitesseMoteurG>
				vitesseMoteurD=joysticY;
     826:	90 93 da 02 	sts	0x02DA, r25	; 0x8002da <vitesseMoteurD+0x1>
     82a:	80 93 d9 02 	sts	0x02D9, r24	; 0x8002d9 <vitesseMoteurD>
     82e:	0a c0       	rjmp	.+20     	; 0x844 <controleManuel+0x64>
			}
			else
			{
				vitesseMoteurD=joysticY+joysticX;
     830:	28 0f       	add	r18, r24
     832:	39 1f       	adc	r19, r25
     834:	30 93 da 02 	sts	0x02DA, r19	; 0x8002da <vitesseMoteurD+0x1>
     838:	20 93 d9 02 	sts	0x02D9, r18	; 0x8002d9 <vitesseMoteurD>
				vitesseMoteurG=joysticY;
     83c:	90 93 dc 02 	sts	0x02DC, r25	; 0x8002dc <vitesseMoteurG+0x1>
     840:	80 93 db 02 	sts	0x02DB, r24	; 0x8002db <vitesseMoteurG>
			}

			if(vitesseMoteurD<0)
     844:	80 91 d9 02 	lds	r24, 0x02D9	; 0x8002d9 <vitesseMoteurD>
     848:	90 91 da 02 	lds	r25, 0x02DA	; 0x8002da <vitesseMoteurD+0x1>
     84c:	99 23       	and	r25, r25
     84e:	24 f4       	brge	.+8      	; 0x858 <controleManuel+0x78>
			vitesseMoteurD=0;
     850:	10 92 da 02 	sts	0x02DA, r1	; 0x8002da <vitesseMoteurD+0x1>
     854:	10 92 d9 02 	sts	0x02D9, r1	; 0x8002d9 <vitesseMoteurD>
			if(vitesseMoteurG<0)
     858:	80 91 db 02 	lds	r24, 0x02DB	; 0x8002db <vitesseMoteurG>
     85c:	90 91 dc 02 	lds	r25, 0x02DC	; 0x8002dc <vitesseMoteurG+0x1>
     860:	99 23       	and	r25, r25
     862:	24 f4       	brge	.+8      	; 0x86c <controleManuel+0x8c>
			vitesseMoteurG=0;
     864:	10 92 dc 02 	sts	0x02DC, r1	; 0x8002dc <vitesseMoteurG+0x1>
     868:	10 92 db 02 	sts	0x02DB, r1	; 0x8002db <vitesseMoteurG>
			OCR4B=0;
     86c:	10 92 ab 00 	sts	0x00AB, r1	; 0x8000ab <__TEXT_REGION_LENGTH__+0x7c00ab>
     870:	10 92 aa 00 	sts	0x00AA, r1	; 0x8000aa <__TEXT_REGION_LENGTH__+0x7c00aa>
			OCR5B=(VIT_MIN+vitesseMoteurG);
     874:	80 91 db 02 	lds	r24, 0x02DB	; 0x8002db <vitesseMoteurG>
     878:	90 91 dc 02 	lds	r25, 0x02DC	; 0x8002dc <vitesseMoteurG+0x1>
     87c:	9e 5f       	subi	r25, 0xFE	; 254
     87e:	90 93 2b 01 	sts	0x012B, r25	; 0x80012b <__TEXT_REGION_LENGTH__+0x7c012b>
     882:	80 93 2a 01 	sts	0x012A, r24	; 0x80012a <__TEXT_REGION_LENGTH__+0x7c012a>
			OCR4C=(VIT_MIN+vitesseMoteurD);
     886:	80 91 d9 02 	lds	r24, 0x02D9	; 0x8002d9 <vitesseMoteurD>
     88a:	90 91 da 02 	lds	r25, 0x02DA	; 0x8002da <vitesseMoteurD+0x1>
     88e:	9e 5f       	subi	r25, 0xFE	; 254
     890:	90 93 ad 00 	sts	0x00AD, r25	; 0x8000ad <__TEXT_REGION_LENGTH__+0x7c00ad>
     894:	80 93 ac 00 	sts	0x00AC, r24	; 0x8000ac <__TEXT_REGION_LENGTH__+0x7c00ac>
			OCR5C=0;
     898:	10 92 2d 01 	sts	0x012D, r1	; 0x80012d <__TEXT_REGION_LENGTH__+0x7c012d>
     89c:	10 92 2c 01 	sts	0x012C, r1	; 0x80012c <__TEXT_REGION_LENGTH__+0x7c012c>
     8a0:	08 95       	ret
		}
		else
		{
			if(joysticX>0)
     8a2:	20 91 e2 02 	lds	r18, 0x02E2	; 0x8002e2 <joysticX>
     8a6:	30 91 e3 02 	lds	r19, 0x02E3	; 0x8002e3 <joysticX+0x1>
     8aa:	12 16       	cp	r1, r18
     8ac:	13 06       	cpc	r1, r19
     8ae:	64 f4       	brge	.+24     	; 0x8c8 <controleManuel+0xe8>
			{
				vitesseMoteurG=joysticY-joysticX;
     8b0:	ac 01       	movw	r20, r24
     8b2:	42 1b       	sub	r20, r18
     8b4:	53 0b       	sbc	r21, r19
     8b6:	50 93 dc 02 	sts	0x02DC, r21	; 0x8002dc <vitesseMoteurG+0x1>
     8ba:	40 93 db 02 	sts	0x02DB, r20	; 0x8002db <vitesseMoteurG>
				vitesseMoteurD=joysticY;
     8be:	90 93 da 02 	sts	0x02DA, r25	; 0x8002da <vitesseMoteurD+0x1>
     8c2:	80 93 d9 02 	sts	0x02D9, r24	; 0x8002d9 <vitesseMoteurD>
     8c6:	0a c0       	rjmp	.+20     	; 0x8dc <controleManuel+0xfc>
			}
			else
			{
				vitesseMoteurD=joysticY+joysticX;
     8c8:	28 0f       	add	r18, r24
     8ca:	39 1f       	adc	r19, r25
     8cc:	30 93 da 02 	sts	0x02DA, r19	; 0x8002da <vitesseMoteurD+0x1>
     8d0:	20 93 d9 02 	sts	0x02D9, r18	; 0x8002d9 <vitesseMoteurD>
				vitesseMoteurG=joysticY;
     8d4:	90 93 dc 02 	sts	0x02DC, r25	; 0x8002dc <vitesseMoteurG+0x1>
     8d8:	80 93 db 02 	sts	0x02DB, r24	; 0x8002db <vitesseMoteurG>
			}
			if(vitesseMoteurD<0)
     8dc:	80 91 d9 02 	lds	r24, 0x02D9	; 0x8002d9 <vitesseMoteurD>
     8e0:	90 91 da 02 	lds	r25, 0x02DA	; 0x8002da <vitesseMoteurD+0x1>
     8e4:	99 23       	and	r25, r25
     8e6:	24 f4       	brge	.+8      	; 0x8f0 <controleManuel+0x110>
			vitesseMoteurD=0;
     8e8:	10 92 da 02 	sts	0x02DA, r1	; 0x8002da <vitesseMoteurD+0x1>
     8ec:	10 92 d9 02 	sts	0x02D9, r1	; 0x8002d9 <vitesseMoteurD>
			if(vitesseMoteurG<0)
     8f0:	80 91 db 02 	lds	r24, 0x02DB	; 0x8002db <vitesseMoteurG>
     8f4:	90 91 dc 02 	lds	r25, 0x02DC	; 0x8002dc <vitesseMoteurG+0x1>
     8f8:	99 23       	and	r25, r25
     8fa:	24 f4       	brge	.+8      	; 0x904 <controleManuel+0x124>
			vitesseMoteurG=0;
     8fc:	10 92 dc 02 	sts	0x02DC, r1	; 0x8002dc <vitesseMoteurG+0x1>
     900:	10 92 db 02 	sts	0x02DB, r1	; 0x8002db <vitesseMoteurG>
			OCR4B=(VIT_MIN+vitesseMoteurD);
     904:	80 91 d9 02 	lds	r24, 0x02D9	; 0x8002d9 <vitesseMoteurD>
     908:	90 91 da 02 	lds	r25, 0x02DA	; 0x8002da <vitesseMoteurD+0x1>
     90c:	9e 5f       	subi	r25, 0xFE	; 254
     90e:	90 93 ab 00 	sts	0x00AB, r25	; 0x8000ab <__TEXT_REGION_LENGTH__+0x7c00ab>
     912:	80 93 aa 00 	sts	0x00AA, r24	; 0x8000aa <__TEXT_REGION_LENGTH__+0x7c00aa>
			OCR5B=0;
     916:	10 92 2b 01 	sts	0x012B, r1	; 0x80012b <__TEXT_REGION_LENGTH__+0x7c012b>
     91a:	10 92 2a 01 	sts	0x012A, r1	; 0x80012a <__TEXT_REGION_LENGTH__+0x7c012a>
			OCR4C=0;
     91e:	10 92 ad 00 	sts	0x00AD, r1	; 0x8000ad <__TEXT_REGION_LENGTH__+0x7c00ad>
     922:	10 92 ac 00 	sts	0x00AC, r1	; 0x8000ac <__TEXT_REGION_LENGTH__+0x7c00ac>
			OCR5C=(VIT_MIN+vitesseMoteurG);
     926:	80 91 db 02 	lds	r24, 0x02DB	; 0x8002db <vitesseMoteurG>
     92a:	90 91 dc 02 	lds	r25, 0x02DC	; 0x8002dc <vitesseMoteurG+0x1>
     92e:	9e 5f       	subi	r25, 0xFE	; 254
     930:	90 93 2d 01 	sts	0x012D, r25	; 0x80012d <__TEXT_REGION_LENGTH__+0x7c012d>
     934:	80 93 2c 01 	sts	0x012C, r24	; 0x80012c <__TEXT_REGION_LENGTH__+0x7c012c>
     938:	08 95       	ret

0000093a <main>:

/*Programme principal*/

int main(void)
{
	lcdInit();
     93a:	cb dc       	rcall	.-1642   	; 0x2d2 <lcdInit>
	
	PORTA|=0x0F;//initclavier
     93c:	82 b1       	in	r24, 0x02	; 2
     93e:	8f 60       	ori	r24, 0x0F	; 15
     940:	82 b9       	out	0x02, r24	; 2
     942:	2f ef       	ldi	r18, 0xFF	; 255
     944:	81 ee       	ldi	r24, 0xE1	; 225
     946:	94 e0       	ldi	r25, 0x04	; 4
     948:	21 50       	subi	r18, 0x01	; 1
     94a:	80 40       	sbci	r24, 0x00	; 0
     94c:	90 40       	sbci	r25, 0x00	; 0
     94e:	e1 f7       	brne	.-8      	; 0x948 <main+0xe>
     950:	00 c0       	rjmp	.+0      	; 0x952 <main+0x18>
     952:	00 00       	nop
	
	_delay_ms(100);
	
	lcdPuts("Enter Password:");
     954:	85 e1       	ldi	r24, 0x15	; 21
     956:	92 e0       	ldi	r25, 0x02	; 2
     958:	14 dd       	rcall	.-1496   	; 0x382 <lcdPuts>
	lcdSetPos(0,1);
     95a:	61 e0       	ldi	r22, 0x01	; 1
     95c:	80 e0       	ldi	r24, 0x00	; 0
	
	adcInit();
     95e:	25 dd       	rcall	.-1462   	; 0x3aa <lcdSetPos>
     960:	d1 de       	rcall	.-606    	; 0x704 <adcInit>
	moteurInit();
     962:	e6 de       	rcall	.-564    	; 0x730 <moteurInit>
     964:	ea e7       	ldi	r30, 0x7A	; 122
	
	ADCSRA |= (1<<ADSC); //debut conversion ADC.
     966:	f0 e0       	ldi	r31, 0x00	; 0
     968:	80 81       	ld	r24, Z
     96a:	80 64       	ori	r24, 0x40	; 64
     96c:	80 83       	st	Z, r24
     96e:	85 b5       	in	r24, 0x25	; 37
	
	TCCR0B |= (1<<CS01) | (1<<CS00); //avec diviseur de clock /64.
     970:	83 60       	ori	r24, 0x03	; 3
     972:	85 bd       	out	0x25, r24	; 37
     974:	84 b5       	in	r24, 0x24	; 36
	TCCR0A |= (1<<WGM01);//Configuration du timer 0 en CTC
     976:	82 60       	ori	r24, 0x02	; 2
     978:	84 bd       	out	0x24, r24	; 36
     97a:	ee e6       	ldi	r30, 0x6E	; 110
	TIMSK0 |= (1<<OCIE0A);//Output Compare Match A Interrupt Enable.
     97c:	f0 e0       	ldi	r31, 0x00	; 0
     97e:	80 81       	ld	r24, Z
     980:	82 60       	ori	r24, 0x02	; 2
     982:	80 83       	st	Z, r24
     984:	89 ef       	ldi	r24, 0xF9	; 249
	OCR0A = 249;//Top a la valeur 249 afin de obtenir un periode de 1ms fixe.
     986:	87 bd       	out	0x27, r24	; 39
     988:	e5 e0       	ldi	r30, 0x05	; 5
	
	PORTJ |= 0b00011000;//active pull-up sur PB4 et PB5
     98a:	f1 e0       	ldi	r31, 0x01	; 1
     98c:	80 81       	ld	r24, Z
     98e:	88 61       	ori	r24, 0x18	; 24
     990:	80 83       	st	Z, r24
     992:	e8 e6       	ldi	r30, 0x68	; 104
	PCICR |= 0b00000010;//active la lecture sur PCINT4 et PCINT5
     994:	f0 e0       	ldi	r31, 0x00	; 0
     996:	80 81       	ld	r24, Z
     998:	82 60       	ori	r24, 0x02	; 2
     99a:	80 83       	st	Z, r24
     99c:	ec e6       	ldi	r30, 0x6C	; 108
	PCMSK1 |= 0b00110000;//active les interruption sur PCINT4 et PCINT5
     99e:	f0 e0       	ldi	r31, 0x00	; 0
     9a0:	80 81       	ld	r24, Z
     9a2:	80 63       	ori	r24, 0x30	; 48
     9a4:	80 83       	st	Z, r24
     9a6:	20 e0       	ldi	r18, 0x00	; 0
	
	usart0Init(115200,16000000);
     9a8:	34 e2       	ldi	r19, 0x24	; 36
     9aa:	44 ef       	ldi	r20, 0xF4	; 244
     9ac:	50 e0       	ldi	r21, 0x00	; 0
     9ae:	60 e0       	ldi	r22, 0x00	; 0
     9b0:	72 ec       	ldi	r23, 0xC2	; 194
     9b2:	81 e0       	ldi	r24, 0x01	; 1
     9b4:	90 e0       	ldi	r25, 0x00	; 0
     9b6:	ae d3       	rcall	.+1884   	; 0x1114 <usart0Init>
     9b8:	20 e0       	ldi	r18, 0x00	; 0
	usartGpsInit(9600,16000000);
     9ba:	34 e2       	ldi	r19, 0x24	; 36
     9bc:	44 ef       	ldi	r20, 0xF4	; 244
     9be:	50 e0       	ldi	r21, 0x00	; 0
     9c0:	60 e8       	ldi	r22, 0x80	; 128
     9c2:	75 e2       	ldi	r23, 0x25	; 37
     9c4:	80 e0       	ldi	r24, 0x00	; 0
     9c6:	90 e0       	ldi	r25, 0x00	; 0
     9c8:	8e d4       	rcall	.+2332   	; 0x12e6 <usartGpsInit>
     9ca:	20 e0       	ldi	r18, 0x00	; 0
	usart2Init(115200,16000000);
     9cc:	34 e2       	ldi	r19, 0x24	; 36
     9ce:	44 ef       	ldi	r20, 0xF4	; 244
     9d0:	50 e0       	ldi	r21, 0x00	; 0
     9d2:	60 e0       	ldi	r22, 0x00	; 0
     9d4:	72 ec       	ldi	r23, 0xC2	; 194
     9d6:	81 e0       	ldi	r24, 0x01	; 1
     9d8:	90 e0       	ldi	r25, 0x00	; 0
     9da:	80 d5       	rcall	.+2816   	; 0x14dc <usart2Init>
     9dc:	60 e8       	ldi	r22, 0x80	; 128
	
	envoieConfigPortUart1(9600);
     9de:	75 e2       	ldi	r23, 0x25	; 37
     9e0:	80 e0       	ldi	r24, 0x00	; 0
     9e2:	90 e0       	ldi	r25, 0x00	; 0
     9e4:	0e 94 fa 0d 	call	0x1bf4	; 0x1bf4 <envoieConfigPortUart1>
     9e8:	81 e0       	ldi	r24, 0x01	; 1
	envoieConfigRate(1);
     9ea:	0e 94 3c 0e 	call	0x1c78	; 0x1c78 <envoieConfigRate>
     9ee:	41 e0       	ldi	r20, 0x01	; 1
	envoieConfigMsg(PVT,USART1_ON,USB_ON);
     9f0:	61 e0       	ldi	r22, 0x01	; 1
     9f2:	87 e0       	ldi	r24, 0x07	; 7
     9f4:	0e 94 73 0e 	call	0x1ce6	; 0x1ce6 <envoieConfigMsg>
	usartGpsSendBytes(setRate,14);
     9f8:	6e e0       	ldi	r22, 0x0E	; 14
     9fa:	86 e0       	ldi	r24, 0x06	; 6
     9fc:	92 e0       	ldi	r25, 0x02	; 2
     9fe:	d0 d4       	rcall	.+2464   	; 0x13a0 <usartGpsSendBytes>
	
	do{
		if(refreshClavier)
     a00:	80 91 ca 02 	lds	r24, 0x02CA	; 0x8002ca <refreshClavier>
     a04:	88 23       	and	r24, r24
     a06:	09 f4       	brne	.+2      	; 0xa0a <main+0xd0>
     a08:	46 c0       	rjmp	.+140    	; 0xa96 <main+0x15c>
		{
			refreshClavier = 0;
     a0a:	10 92 ca 02 	sts	0x02CA, r1	; 0x8002ca <refreshClavier>
			key = lireClavier();
     a0e:	d6 de       	rcall	.-596    	; 0x7bc <lireClavier>
     a10:	80 93 d8 02 	sts	0x02D8, r24	; 0x8002d8 <key>
     a14:	88 23       	and	r24, r24
			
			if((key)&&(!lastKey))
     a16:	09 f4       	brne	.+2      	; 0xa1a <main+0xe0>
     a18:	3a c0       	rjmp	.+116    	; 0xa8e <main+0x154>
     a1a:	80 91 d7 02 	lds	r24, 0x02D7	; 0x8002d7 <lastKey>
     a1e:	81 11       	cpse	r24, r1
     a20:	36 c0       	rjmp	.+108    	; 0xa8e <main+0x154>
			{
				lcdSetPos(cntPassword,1);
     a22:	61 e0       	ldi	r22, 0x01	; 1
     a24:	80 91 d6 02 	lds	r24, 0x02D6	; 0x8002d6 <cntPassword>
     a28:	c0 dc       	rcall	.-1664   	; 0x3aa <lcdSetPos>
     a2a:	e0 91 d6 02 	lds	r30, 0x02D6	; 0x8002d6 <cntPassword>
				essaiUser[cntPassword++] = key;
     a2e:	81 e0       	ldi	r24, 0x01	; 1
     a30:	8e 0f       	add	r24, r30
     a32:	80 93 d6 02 	sts	0x02D6, r24	; 0x8002d6 <cntPassword>
     a36:	f0 e0       	ldi	r31, 0x00	; 0
     a38:	80 91 d8 02 	lds	r24, 0x02D8	; 0x8002d8 <key>
     a3c:	ed 50       	subi	r30, 0x0D	; 13
     a3e:	fa 4f       	sbci	r31, 0xFA	; 250
     a40:	80 83       	st	Z, r24
				lcdPutc(key);
     a42:	9c dc       	rcall	.-1736   	; 0x37c <lcdPutc>
     a44:	80 91 d6 02 	lds	r24, 0x02D6	; 0x8002d6 <cntPassword>
				if(cntPassword == 4)
     a48:	84 30       	cpi	r24, 0x04	; 4
     a4a:	09 f5       	brne	.+66     	; 0xa8e <main+0x154>
     a4c:	1d c0       	rjmp	.+58     	; 0xa88 <main+0x14e>
     a4e:	8c 2f       	mov	r24, r28
				{
					for(uint8_t index = 0; index<4; index++)
					{
						if(essaiUser[index] == password[index])
     a50:	90 e0       	ldi	r25, 0x00	; 0
     a52:	fc 01       	movw	r30, r24
     a54:	ed 50       	subi	r30, 0x0D	; 13
     a56:	fa 4f       	sbci	r31, 0xFA	; 250
     a58:	20 81       	ld	r18, Z
     a5a:	fc 01       	movw	r30, r24
     a5c:	ef 5f       	subi	r30, 0xFF	; 255
     a5e:	fd 4f       	sbci	r31, 0xFD	; 253
     a60:	80 81       	ld	r24, Z
     a62:	28 13       	cpse	r18, r24
						{
							passwordValid = 1;
     a64:	04 c0       	rjmp	.+8      	; 0xa6e <main+0x134>
     a66:	81 e0       	ldi	r24, 0x01	; 1
     a68:	80 93 d5 02 	sts	0x02D5, r24	; 0x8002d5 <passwordValid>
						}
						else
						{
							lcdClearScreen();
     a6c:	0b c0       	rjmp	.+22     	; 0xa84 <main+0x14a>
     a6e:	a7 dc       	rcall	.-1714   	; 0x3be <lcdClearScreen>
							lcdPuts("Invalid password");
     a70:	85 e2       	ldi	r24, 0x25	; 37
     a72:	92 e0       	ldi	r25, 0x02	; 2
     a74:	86 dc       	rcall	.-1780   	; 0x382 <lcdPuts>
     a76:	61 e0       	ldi	r22, 0x01	; 1
							lcdSetPos(0,1);
     a78:	80 e0       	ldi	r24, 0x00	; 0
     a7a:	97 dc       	rcall	.-1746   	; 0x3aa <lcdSetPos>
     a7c:	10 92 d6 02 	sts	0x02D6, r1	; 0x8002d6 <cntPassword>
							cntPassword = 0;
     a80:	10 92 d5 02 	sts	0x02D5, r1	; 0x8002d5 <passwordValid>
							passwordValid = 0;
     a84:	cf 5f       	subi	r28, 0xFF	; 255
     a86:	01 c0       	rjmp	.+2      	; 0xa8a <main+0x150>
				lcdSetPos(cntPassword,1);
				essaiUser[cntPassword++] = key;
				lcdPutc(key);
				if(cntPassword == 4)
				{
					for(uint8_t index = 0; index<4; index++)
     a88:	c0 e0       	ldi	r28, 0x00	; 0
     a8a:	c4 30       	cpi	r28, 0x04	; 4
     a8c:	00 f3       	brcs	.-64     	; 0xa4e <main+0x114>
							passwordValid = 0;
						}
					}
				}
			}
			lastKey = key;
     a8e:	80 91 d8 02 	lds	r24, 0x02D8	; 0x8002d8 <key>
     a92:	80 93 d7 02 	sts	0x02D7, r24	; 0x8002d7 <lastKey>
		}
	}while(!passwordValid);
     a96:	80 91 d5 02 	lds	r24, 0x02D5	; 0x8002d5 <passwordValid>
     a9a:	88 23       	and	r24, r24
     a9c:	09 f4       	brne	.+2      	; 0xaa0 <main+0x166>
	passwordValid = 0;
     a9e:	b0 cf       	rjmp	.-160    	; 0xa00 <main+0xc6>
	lcdClearScreen();
     aa0:	10 92 d5 02 	sts	0x02D5, r1	; 0x8002d5 <passwordValid>
	lcdSetPos(0,0);
     aa4:	8c dc       	rcall	.-1768   	; 0x3be <lcdClearScreen>
     aa6:	60 e0       	ldi	r22, 0x00	; 0
     aa8:	80 e0       	ldi	r24, 0x00	; 0
     aaa:	7f dc       	rcall	.-1794   	; 0x3aa <lcdSetPos>
	lcdPuts("Mode Manuel  <-");
     aac:	86 e3       	ldi	r24, 0x36	; 54
     aae:	92 e0       	ldi	r25, 0x02	; 2
     ab0:	68 dc       	rcall	.-1840   	; 0x382 <lcdPuts>
	
	while (1)
	{		if(refreshClavier)
     ab2:	80 91 ca 02 	lds	r24, 0x02CA	; 0x8002ca <refreshClavier>
     ab6:	88 23       	and	r24, r24
     ab8:	09 f4       	brne	.+2      	; 0xabc <main+0x182>
		{
			refreshClavier = 0;
     aba:	8e c0       	rjmp	.+284    	; 0xbd8 <main+0x29e>
     abc:	10 92 ca 02 	sts	0x02CA, r1	; 0x8002ca <refreshClavier>
			key = lireClavier();
     ac0:	7d de       	rcall	.-774    	; 0x7bc <lireClavier>
     ac2:	80 93 d8 02 	sts	0x02D8, r24	; 0x8002d8 <key>
			
			if((key)&&(!lastKey))
     ac6:	88 23       	and	r24, r24
     ac8:	09 f4       	brne	.+2      	; 0xacc <main+0x192>
     aca:	82 c0       	rjmp	.+260    	; 0xbd0 <main+0x296>
     acc:	80 91 d7 02 	lds	r24, 0x02D7	; 0x8002d7 <lastKey>
     ad0:	81 11       	cpse	r24, r1
     ad2:	7e c0       	rjmp	.+252    	; 0xbd0 <main+0x296>
			{
				lcdClearScreen();
     ad4:	74 dc       	rcall	.-1816   	; 0x3be <lcdClearScreen>
     ad6:	60 e0       	ldi	r22, 0x00	; 0
				lcdSetPos(0,0);
     ad8:	80 e0       	ldi	r24, 0x00	; 0
     ada:	67 dc       	rcall	.-1842   	; 0x3aa <lcdSetPos>
     adc:	80 91 d8 02 	lds	r24, 0x02D8	; 0x8002d8 <key>
				switch(key)
     ae0:	82 33       	cpi	r24, 0x32	; 50
     ae2:	49 f1       	breq	.+82     	; 0xb36 <main+0x1fc>
     ae4:	18 f4       	brcc	.+6      	; 0xaec <main+0x1b2>
     ae6:	81 33       	cpi	r24, 0x31	; 49
     ae8:	31 f0       	breq	.+12     	; 0xaf6 <main+0x1bc>
     aea:	43 c0       	rjmp	.+134    	; 0xb72 <main+0x238>
     aec:	83 33       	cpi	r24, 0x33	; 51
     aee:	79 f1       	breq	.+94     	; 0xb4e <main+0x214>
     af0:	84 33       	cpi	r24, 0x34	; 52
     af2:	c1 f1       	breq	.+112    	; 0xb64 <main+0x22a>
     af4:	3e c0       	rjmp	.+124    	; 0xb72 <main+0x238>
     af6:	80 91 d3 02 	lds	r24, 0x02D3	; 0x8002d3 <cntMenu>
				{
					case '1':
					modeTondeuse = cntMenu;
     afa:	80 93 d4 02 	sts	0x02D4, r24	; 0x8002d4 <modeTondeuse>
     afe:	81 11       	cpse	r24, r1
     b00:	03 c0       	rjmp	.+6      	; 0xb08 <main+0x1ce>
					if(modeTondeuse == 0)
     b02:	10 92 ce 02 	sts	0x02CE, r1	; 0x8002ce <modeActuel>
					{
						modeActuel = MANUEL;
     b06:	13 c0       	rjmp	.+38     	; 0xb2e <main+0x1f4>
     b08:	81 30       	cpi	r24, 0x01	; 1
     b0a:	19 f4       	brne	.+6      	; 0xb12 <main+0x1d8>
					}
					else if(modeTondeuse == 1)
     b0c:	80 93 ce 02 	sts	0x02CE, r24	; 0x8002ce <modeActuel>
					{
						modeActuel = PROG;
     b10:	0e c0       	rjmp	.+28     	; 0xb2e <main+0x1f4>
     b12:	82 30       	cpi	r24, 0x02	; 2
     b14:	19 f4       	brne	.+6      	; 0xb1c <main+0x1e2>
					}
					else if(modeTondeuse == 2)
     b16:	80 93 ce 02 	sts	0x02CE, r24	; 0x8002ce <modeActuel>
					{
						modeActuel = AUTO;
     b1a:	09 c0       	rjmp	.+18     	; 0xb2e <main+0x1f4>
     b1c:	83 30       	cpi	r24, 0x03	; 3
     b1e:	19 f4       	brne	.+6      	; 0xb26 <main+0x1ec>
					}
					else if(modeTondeuse == 3)
     b20:	80 93 ce 02 	sts	0x02CE, r24	; 0x8002ce <modeActuel>
					{
						modeActuel = SET_TIME;
     b24:	04 c0       	rjmp	.+8      	; 0xb2e <main+0x1f4>
     b26:	84 30       	cpi	r24, 0x04	; 4
     b28:	11 f4       	brne	.+4      	; 0xb2e <main+0x1f4>
					}
					else if(modeTondeuse == 4)
     b2a:	80 93 ce 02 	sts	0x02CE, r24	; 0x8002ce <modeActuel>
					{
						modeActuel = SET_NIP;
     b2e:	81 e0       	ldi	r24, 0x01	; 1
     b30:	80 93 d2 02 	sts	0x02D2, r24	; 0x8002d2 <set>
					}
					set = 1;
     b34:	1e c0       	rjmp	.+60     	; 0xb72 <main+0x238>
     b36:	80 91 d3 02 	lds	r24, 0x02D3	; 0x8002d3 <cntMenu>
					break;
					
					case '2':
					if(cntMenu>0)
     b3a:	88 23       	and	r24, r24
     b3c:	21 f0       	breq	.+8      	; 0xb46 <main+0x20c>
     b3e:	81 50       	subi	r24, 0x01	; 1
     b40:	80 93 d3 02 	sts	0x02D3, r24	; 0x8002d3 <cntMenu>
					cntMenu --;
     b44:	16 c0       	rjmp	.+44     	; 0xb72 <main+0x238>
     b46:	84 e0       	ldi	r24, 0x04	; 4
     b48:	80 93 d3 02 	sts	0x02D3, r24	; 0x8002d3 <cntMenu>
					else
					cntMenu = 4;
     b4c:	12 c0       	rjmp	.+36     	; 0xb72 <main+0x238>
     b4e:	80 91 d3 02 	lds	r24, 0x02D3	; 0x8002d3 <cntMenu>
					
					break;
					
					case '3':
					if(cntMenu<4)
     b52:	84 30       	cpi	r24, 0x04	; 4
     b54:	20 f4       	brcc	.+8      	; 0xb5e <main+0x224>
     b56:	8f 5f       	subi	r24, 0xFF	; 255
					cntMenu ++;
     b58:	80 93 d3 02 	sts	0x02D3, r24	; 0x8002d3 <cntMenu>
     b5c:	0a c0       	rjmp	.+20     	; 0xb72 <main+0x238>
     b5e:	10 92 d3 02 	sts	0x02D3, r1	; 0x8002d3 <cntMenu>
					else
					cntMenu = 0;
     b62:	07 c0       	rjmp	.+14     	; 0xb72 <main+0x238>
					break;
					
					case '4':
					cntMenu = modeTondeuse;
     b64:	80 91 d4 02 	lds	r24, 0x02D4	; 0x8002d4 <modeTondeuse>
     b68:	80 93 d3 02 	sts	0x02D3, r24	; 0x8002d3 <cntMenu>
					set = 1;
     b6c:	81 e0       	ldi	r24, 0x01	; 1
     b6e:	80 93 d2 02 	sts	0x02D2, r24	; 0x8002d2 <set>
					break;
				}
				if(cntMenu == 0)
     b72:	80 91 d3 02 	lds	r24, 0x02D3	; 0x8002d3 <cntMenu>
				{
					lcdPuts("Mode Manuel ");
     b76:	81 11       	cpse	r24, r1
     b78:	04 c0       	rjmp	.+8      	; 0xb82 <main+0x248>
     b7a:	86 e4       	ldi	r24, 0x46	; 70
     b7c:	92 e0       	ldi	r25, 0x02	; 2
     b7e:	01 dc       	rcall	.-2046   	; 0x382 <lcdPuts>
				}
				else if(cntMenu == 1)
     b80:	17 c0       	rjmp	.+46     	; 0xbb0 <main+0x276>
				{
					lcdPuts("Mode Prog   ");
     b82:	81 30       	cpi	r24, 0x01	; 1
     b84:	21 f4       	brne	.+8      	; 0xb8e <main+0x254>
     b86:	83 e5       	ldi	r24, 0x53	; 83
     b88:	92 e0       	ldi	r25, 0x02	; 2
     b8a:	fb db       	rcall	.-2058   	; 0x382 <lcdPuts>
				}
				else if(cntMenu == 2)
     b8c:	11 c0       	rjmp	.+34     	; 0xbb0 <main+0x276>
     b8e:	82 30       	cpi	r24, 0x02	; 2
				{
					lcdPuts("Mode Auto   ");
     b90:	21 f4       	brne	.+8      	; 0xb9a <main+0x260>
     b92:	80 e6       	ldi	r24, 0x60	; 96
     b94:	92 e0       	ldi	r25, 0x02	; 2
     b96:	f5 db       	rcall	.-2070   	; 0x382 <lcdPuts>
				}
				else if(cntMenu == 3)
     b98:	0b c0       	rjmp	.+22     	; 0xbb0 <main+0x276>
     b9a:	83 30       	cpi	r24, 0x03	; 3
				{
					lcdPuts("Set time    ");
     b9c:	21 f4       	brne	.+8      	; 0xba6 <main+0x26c>
     b9e:	8d e6       	ldi	r24, 0x6D	; 109
     ba0:	92 e0       	ldi	r25, 0x02	; 2
     ba2:	ef db       	rcall	.-2082   	; 0x382 <lcdPuts>
				}
				else if(cntMenu == 4)
     ba4:	05 c0       	rjmp	.+10     	; 0xbb0 <main+0x276>
     ba6:	84 30       	cpi	r24, 0x04	; 4
				{
					lcdPuts("Set password");
     ba8:	19 f4       	brne	.+6      	; 0xbb0 <main+0x276>
     baa:	8a e7       	ldi	r24, 0x7A	; 122
     bac:	92 e0       	ldi	r25, 0x02	; 2
     bae:	e9 db       	rcall	.-2094   	; 0x382 <lcdPuts>
				}
				if(set)
     bb0:	80 91 d2 02 	lds	r24, 0x02D2	; 0x8002d2 <set>
     bb4:	88 23       	and	r24, r24
     bb6:	61 f0       	breq	.+24     	; 0xbd0 <main+0x296>
				{
					set = 0;
     bb8:	10 92 d2 02 	sts	0x02D2, r1	; 0x8002d2 <set>
					setTemps = 0;
     bbc:	10 92 d1 02 	sts	0x02D1, r1	; 0x8002d1 <setTemps>
					passwordValid = 0;
     bc0:	10 92 d5 02 	sts	0x02D5, r1	; 0x8002d5 <passwordValid>
					lcdSetPos(13,0);
     bc4:	60 e0       	ldi	r22, 0x00	; 0
     bc6:	8d e0       	ldi	r24, 0x0D	; 13
     bc8:	f0 db       	rcall	.-2080   	; 0x3aa <lcdSetPos>
					lcdPuts("<-");
     bca:	83 e4       	ldi	r24, 0x43	; 67
     bcc:	92 e0       	ldi	r25, 0x02	; 2
     bce:	d9 db       	rcall	.-2126   	; 0x382 <lcdPuts>
				}
			}
			lastKey = key;
     bd0:	80 91 d8 02 	lds	r24, 0x02D8	; 0x8002d8 <key>
     bd4:	80 93 d7 02 	sts	0x02D7, r24	; 0x8002d7 <lastKey>
		}
		switch(modeActuel)
     bd8:	80 91 ce 02 	lds	r24, 0x02CE	; 0x8002ce <modeActuel>
     bdc:	82 30       	cpi	r24, 0x02	; 2
     bde:	09 f4       	brne	.+2      	; 0xbe2 <main+0x2a8>
     be0:	7e c0       	rjmp	.+252    	; 0xcde <main+0x3a4>
     be2:	30 f4       	brcc	.+12     	; 0xbf0 <main+0x2b6>
     be4:	88 23       	and	r24, r24
     be6:	59 f0       	breq	.+22     	; 0xbfe <main+0x2c4>
     be8:	81 30       	cpi	r24, 0x01	; 1
     bea:	09 f4       	brne	.+2      	; 0xbee <main+0x2b4>
     bec:	41 c0       	rjmp	.+130    	; 0xc70 <main+0x336>
     bee:	61 cf       	rjmp	.-318    	; 0xab2 <main+0x178>
     bf0:	83 30       	cpi	r24, 0x03	; 3
     bf2:	09 f4       	brne	.+2      	; 0xbf6 <main+0x2bc>
     bf4:	cf c0       	rjmp	.+414    	; 0xd94 <main+0x45a>
     bf6:	84 30       	cpi	r24, 0x04	; 4
     bf8:	09 f4       	brne	.+2      	; 0xbfc <main+0x2c2>
     bfa:	31 c2       	rjmp	.+1122   	; 0x105e <__EEPROM_REGION_LENGTH__+0x5e>
     bfc:	5a cf       	rjmp	.-332    	; 0xab2 <main+0x178>
		{
			case MANUEL:
			controleManuel();
     bfe:	f0 dd       	rcall	.-1056   	; 0x7e0 <controleManuel>
     c00:	50 d6       	rcall	.+3232   	; 0x18a2 <getBoutonX>
			if(getBoutonX() == 0x31)
     c02:	81 33       	cpi	r24, 0x31	; 49
     c04:	51 f4       	brne	.+20     	; 0xc1a <main+0x2e0>
     c06:	80 e0       	ldi	r24, 0x00	; 0
			{
				OCR1B=1024;
     c08:	94 e0       	ldi	r25, 0x04	; 4
     c0a:	90 93 8b 00 	sts	0x008B, r25	; 0x80008b <__TEXT_REGION_LENGTH__+0x7c008b>
     c0e:	80 93 8a 00 	sts	0x008A, r24	; 0x80008a <__TEXT_REGION_LENGTH__+0x7c008a>
				DDRB|=(1<<6);
     c12:	84 b1       	in	r24, 0x04	; 4
     c14:	80 64       	ori	r24, 0x40	; 64
			}
			else
			{
				OCR1B=90;
     c16:	84 b9       	out	0x04, r24	; 4
     c18:	09 c0       	rjmp	.+18     	; 0xc2c <main+0x2f2>
     c1a:	8a e5       	ldi	r24, 0x5A	; 90
     c1c:	90 e0       	ldi	r25, 0x00	; 0
     c1e:	90 93 8b 00 	sts	0x008B, r25	; 0x80008b <__TEXT_REGION_LENGTH__+0x7c008b>
				DDRB &= ~(1<<6);
     c22:	80 93 8a 00 	sts	0x008A, r24	; 0x80008a <__TEXT_REGION_LENGTH__+0x7c008a>
			}
			if(refreshLCD)
     c26:	84 b1       	in	r24, 0x04	; 4
     c28:	8f 7b       	andi	r24, 0xBF	; 191
     c2a:	84 b9       	out	0x04, r24	; 4
			{
				refreshLCD = 0;
     c2c:	80 91 c9 02 	lds	r24, 0x02C9	; 0x8002c9 <refreshLCD>
				lcdSetPos(0,1);
     c30:	88 23       	and	r24, r24
     c32:	41 f0       	breq	.+16     	; 0xc44 <main+0x30a>
				lcdPuts(msgTime);
     c34:	10 92 c9 02 	sts	0x02C9, r1	; 0x8002c9 <refreshLCD>
     c38:	61 e0       	ldi	r22, 0x01	; 1
			}
			if(usart2RxAvailable())
     c3a:	80 e0       	ldi	r24, 0x00	; 0
     c3c:	b6 db       	rcall	.-2196   	; 0x3aa <lcdSetPos>
     c3e:	8b e0       	ldi	r24, 0x0B	; 11
     c40:	96 e0       	ldi	r25, 0x06	; 6
     c42:	9f db       	rcall	.-2242   	; 0x382 <lcdPuts>
			{
				dataBluetooth = usart2RemRxData();
     c44:	85 d4       	rcall	.+2314   	; 0x1550 <usart2RxAvailable>
     c46:	88 23       	and	r24, r24
     c48:	09 f4       	brne	.+2      	; 0xc4c <main+0x312>
				if(parseBluetoothManuel(dataBluetooth))
     c4a:	33 cf       	rjmp	.-410    	; 0xab2 <main+0x178>
     c4c:	84 d4       	rcall	.+2312   	; 0x1556 <usart2RemRxData>
     c4e:	80 93 ed 02 	sts	0x02ED, r24	; 0x8002ed <dataBluetooth>
     c52:	0e d5       	rcall	.+2588   	; 0x1670 <parseBluetoothManuel>
				{
					joysticX = getJoystickGaucheX();
     c54:	88 23       	and	r24, r24
     c56:	09 f4       	brne	.+2      	; 0xc5a <main+0x320>
     c58:	2c cf       	rjmp	.-424    	; 0xab2 <main+0x178>
     c5a:	19 d6       	rcall	.+3122   	; 0x188e <getJoystickGaucheX>
     c5c:	90 93 e3 02 	sts	0x02E3, r25	; 0x8002e3 <joysticX+0x1>
					joysticY = getJoystickGaucheY();
     c60:	80 93 e2 02 	sts	0x02E2, r24	; 0x8002e2 <joysticX>
     c64:	19 d6       	rcall	.+3122   	; 0x1898 <getJoystickGaucheY>
     c66:	90 93 e1 02 	sts	0x02E1, r25	; 0x8002e1 <joysticY+0x1>
     c6a:	80 93 e0 02 	sts	0x02E0, r24	; 0x8002e0 <joysticY>
				}
			}
			break;
			
			case PROG:
			if(usart2RxAvailable())
     c6e:	21 cf       	rjmp	.-446    	; 0xab2 <main+0x178>
     c70:	6f d4       	rcall	.+2270   	; 0x1550 <usart2RxAvailable>
     c72:	88 23       	and	r24, r24
			{
				//_delay_ms(10);
				dataBluetooth = usart2RemRxData();
     c74:	69 f1       	breq	.+90     	; 0xcd0 <main+0x396>
     c76:	6f d4       	rcall	.+2270   	; 0x1556 <usart2RemRxData>
     c78:	80 93 ed 02 	sts	0x02ED, r24	; 0x8002ed <dataBluetooth>
				if(parseBluetoothAuto(dataBluetooth))
     c7c:	70 d5       	rcall	.+2784   	; 0x175e <parseBluetoothAuto>
     c7e:	88 23       	and	r24, r24
     c80:	39 f1       	breq	.+78     	; 0xcd0 <main+0x396>
				{
					tabLatMem[cnt1++] = getLat();
     c82:	c0 91 ec 02 	lds	r28, 0x02EC	; 0x8002ec <cnt1>
     c86:	81 e0       	ldi	r24, 0x01	; 1
     c88:	8c 0f       	add	r24, r28
     c8a:	80 93 ec 02 	sts	0x02EC, r24	; 0x8002ec <cnt1>
     c8e:	d0 e0       	ldi	r29, 0x00	; 0
     c90:	14 d6       	rcall	.+3112   	; 0x18ba <getLat>
     c92:	cc 0f       	add	r28, r28
     c94:	dd 1f       	adc	r29, r29
     c96:	cc 0f       	add	r28, r28
     c98:	dd 1f       	adc	r29, r29
     c9a:	c6 5c       	subi	r28, 0xC6	; 198
     c9c:	dc 4f       	sbci	r29, 0xFC	; 252
     c9e:	68 83       	st	Y, r22
     ca0:	79 83       	std	Y+1, r23	; 0x01
					tabLonMem[cnt2++] = getLon();
     ca2:	8a 83       	std	Y+2, r24	; 0x02
     ca4:	9b 83       	std	Y+3, r25	; 0x03
     ca6:	c0 91 eb 02 	lds	r28, 0x02EB	; 0x8002eb <cnt2>
     caa:	81 e0       	ldi	r24, 0x01	; 1
     cac:	8c 0f       	add	r24, r28
     cae:	80 93 eb 02 	sts	0x02EB, r24	; 0x8002eb <cnt2>
     cb2:	d0 e0       	ldi	r29, 0x00	; 0
     cb4:	f9 d5       	rcall	.+3058   	; 0x18a8 <getLon>
     cb6:	cc 0f       	add	r28, r28
     cb8:	dd 1f       	adc	r29, r29
     cba:	cc 0f       	add	r28, r28
     cbc:	dd 1f       	adc	r29, r29
     cbe:	c5 58       	subi	r28, 0x85	; 133
     cc0:	db 4f       	sbci	r29, 0xFB	; 251
					usart2SendString("S;ack;");
     cc2:	68 83       	st	Y, r22
     cc4:	79 83       	std	Y+1, r23	; 0x01
     cc6:	8a 83       	std	Y+2, r24	; 0x02
     cc8:	9b 83       	std	Y+3, r25	; 0x03
				}
			}
			lcdSetPos(0,1);
     cca:	87 e8       	ldi	r24, 0x87	; 135
     ccc:	92 e0       	ldi	r25, 0x02	; 2
     cce:	5d d4       	rcall	.+2234   	; 0x158a <usart2SendString>
     cd0:	61 e0       	ldi	r22, 0x01	; 1
			lcdPuts(msgTime);
     cd2:	80 e0       	ldi	r24, 0x00	; 0
     cd4:	6a db       	rcall	.-2348   	; 0x3aa <lcdSetPos>
     cd6:	8b e0       	ldi	r24, 0x0B	; 11
			break;
			
			case AUTO:
			if(refreshLCD)
     cd8:	96 e0       	ldi	r25, 0x06	; 6
     cda:	53 db       	rcall	.-2394   	; 0x382 <lcdPuts>
     cdc:	ea ce       	rjmp	.-556    	; 0xab2 <main+0x178>
			{
				refreshLCD = 0;
     cde:	80 91 c9 02 	lds	r24, 0x02C9	; 0x8002c9 <refreshLCD>
				lcdSetPos(0,1);
     ce2:	88 23       	and	r24, r24
     ce4:	41 f0       	breq	.+16     	; 0xcf6 <main+0x3bc>
     ce6:	10 92 c9 02 	sts	0x02C9, r1	; 0x8002c9 <refreshLCD>
				lcdPuts(msgTime);
     cea:	61 e0       	ldi	r22, 0x01	; 1
     cec:	80 e0       	ldi	r24, 0x00	; 0
     cee:	5d db       	rcall	.-2374   	; 0x3aa <lcdSetPos>
			}
			
			if(usart0RxAvailable())
     cf0:	8b e0       	ldi	r24, 0x0B	; 11
     cf2:	96 e0       	ldi	r25, 0x06	; 6
     cf4:	46 db       	rcall	.-2420   	; 0x382 <lcdPuts>
     cf6:	48 d2       	rcall	.+1168   	; 0x1188 <usart0RxAvailable>
			{
				dataLiDAR = usart0RemRxData();
     cf8:	88 23       	and	r24, r24
     cfa:	c9 f0       	breq	.+50     	; 0xd2e <main+0x3f4>
     cfc:	48 d2       	rcall	.+1168   	; 0x118e <usart0RemRxData>
				if(parseRxLidar(dataLiDAR))
     cfe:	80 93 ea 02 	sts	0x02EA, r24	; 0x8002ea <dataLiDAR>
     d02:	67 db       	rcall	.-2354   	; 0x3d2 <parseRxLidar>
     d04:	88 23       	and	r24, r24
				{
					sprintf(msgLiDAR,"%d",getDist());
     d06:	99 f0       	breq	.+38     	; 0xd2e <main+0x3f4>
     d08:	07 dc       	rcall	.-2034   	; 0x518 <getDist>
     d0a:	9f 93       	push	r25
     d0c:	8f 93       	push	r24
     d0e:	83 ea       	ldi	r24, 0xA3	; 163
     d10:	92 e0       	ldi	r25, 0x02	; 2
     d12:	9f 93       	push	r25
     d14:	8f 93       	push	r24
     d16:	87 ef       	ldi	r24, 0xF7	; 247
     d18:	95 e0       	ldi	r25, 0x05	; 5
     d1a:	9f 93       	push	r25
     d1c:	8f 93       	push	r24
     d1e:	0e 94 3c 16 	call	0x2c78	; 0x2c78 <sprintf>
     d22:	0f 90       	pop	r0
     d24:	0f 90       	pop	r0
     d26:	0f 90       	pop	r0
     d28:	0f 90       	pop	r0
     d2a:	0f 90       	pop	r0
					//sprintf(msgBluetooth,"S;%f;%f;%d;%d;%d;%d;",lat,lon,45,3200,6700,70);
				}
			}
			if(usartGpsRxAvailable())
     d2c:	0f 90       	pop	r0
     d2e:	15 d3       	rcall	.+1578   	; 0x135a <usartGpsRxAvailable>
     d30:	88 23       	and	r24, r24
     d32:	09 f4       	brne	.+2      	; 0xd36 <main+0x3fc>
			{
				dataGps = usartGpsRemRxData();
     d34:	be ce       	rjmp	.-644    	; 0xab2 <main+0x178>
     d36:	14 d3       	rcall	.+1576   	; 0x1360 <usartGpsRemRxData>
     d38:	80 93 1f 06 	sts	0x061F, r24	; 0x80061f <dataGps>
				if(parseRxUbxNavPvt(dataGps))
     d3c:	c7 d5       	rcall	.+2958   	; 0x18cc <parseRxUbxNavPvt>
     d3e:	88 23       	and	r24, r24
     d40:	09 f4       	brne	.+2      	; 0xd44 <main+0x40a>
     d42:	b7 ce       	rjmp	.-658    	; 0xab2 <main+0x178>
     d44:	25 d7       	rcall	.+3658   	; 0x1b90 <getNavPvtLat>
				{
					sprintf(msgGpsLat, "%f", getNavPvtLat());
     d46:	9f 93       	push	r25
     d48:	8f 93       	push	r24
     d4a:	7f 93       	push	r23
     d4c:	6f 93       	push	r22
     d4e:	ce e8       	ldi	r28, 0x8E	; 142
     d50:	d2 e0       	ldi	r29, 0x02	; 2
     d52:	df 93       	push	r29
     d54:	cf 93       	push	r28
     d56:	8b ec       	ldi	r24, 0xCB	; 203
     d58:	95 e0       	ldi	r25, 0x05	; 5
     d5a:	9f 93       	push	r25
     d5c:	8f 93       	push	r24
     d5e:	0e 94 3c 16 	call	0x2c78	; 0x2c78 <sprintf>
     d62:	23 d7       	rcall	.+3654   	; 0x1baa <getNavPvtLon>
     d64:	9f 93       	push	r25
					sprintf(msgGpsLon, "%f", getNavPvtLon());
     d66:	8f 93       	push	r24
     d68:	7f 93       	push	r23
     d6a:	6f 93       	push	r22
     d6c:	df 93       	push	r29
     d6e:	cf 93       	push	r28
     d70:	83 ee       	ldi	r24, 0xE3	; 227
     d72:	95 e0       	ldi	r25, 0x05	; 5
     d74:	9f 93       	push	r25
     d76:	8f 93       	push	r24
     d78:	0e 94 3c 16 	call	0x2c78	; 0x2c78 <sprintf>
     d7c:	8b e0       	ldi	r24, 0x0B	; 11
     d7e:	96 e0       	ldi	r25, 0x06	; 6
					getNavPvtTime(msgTime);
     d80:	e6 d7       	rcall	.+4044   	; 0x1d4e <getNavPvtTime>
     d82:	ad b7       	in	r26, 0x3d	; 61
     d84:	be b7       	in	r27, 0x3e	; 62
     d86:	50 96       	adiw	r26, 0x10	; 16
     d88:	0f b6       	in	r0, 0x3f	; 63
     d8a:	f8 94       	cli
     d8c:	be bf       	out	0x3e, r27	; 62
     d8e:	0f be       	out	0x3f, r0	; 63
     d90:	ad bf       	out	0x3d, r26	; 61
     d92:	8f ce       	rjmp	.-738    	; 0xab2 <main+0x178>
     d94:	61 e0       	ldi	r22, 0x01	; 1
     d96:	80 e0       	ldi	r24, 0x00	; 0
     d98:	08 db       	rcall	.-2544   	; 0x3aa <lcdSetPos>
				}
			}
			break;
			
			case SET_TIME:
			lcdSetPos(0,1);
     d9a:	80 91 cf 02 	lds	r24, 0x02CF	; 0x8002cf <minutesCoupe>
     d9e:	1f 92       	push	r1
     da0:	8f 93       	push	r24
			sprintf(tempsCoupe,"%d:%d",heureCoupe,minutesCoupe/*,trameGpsNavPvtValide[16]*/);
     da2:	80 91 d0 02 	lds	r24, 0x02D0	; 0x8002d0 <heureCoupe>
     da6:	1f 92       	push	r1
     da8:	8f 93       	push	r24
     daa:	87 ea       	ldi	r24, 0xA7	; 167
     dac:	92 e0       	ldi	r25, 0x02	; 2
     dae:	9f 93       	push	r25
     db0:	8f 93       	push	r24
     db2:	80 e2       	ldi	r24, 0x20	; 32
     db4:	96 e0       	ldi	r25, 0x06	; 6
     db6:	9f 93       	push	r25
     db8:	8f 93       	push	r24
     dba:	0e 94 3c 16 	call	0x2c78	; 0x2c78 <sprintf>
     dbe:	8d b7       	in	r24, 0x3d	; 61
     dc0:	9e b7       	in	r25, 0x3e	; 62
     dc2:	08 96       	adiw	r24, 0x08	; 8
     dc4:	0f b6       	in	r0, 0x3f	; 63
     dc6:	f8 94       	cli
     dc8:	9e bf       	out	0x3e, r25	; 62
     dca:	0f be       	out	0x3f, r0	; 63
			do
			{
				if(refreshClavier)
     dcc:	8d bf       	out	0x3d, r24	; 61
     dce:	80 91 ca 02 	lds	r24, 0x02CA	; 0x8002ca <refreshClavier>
     dd2:	88 23       	and	r24, r24
     dd4:	09 f4       	brne	.+2      	; 0xdd8 <main+0x49e>
				{
					refreshClavier = 0;
     dd6:	3d c1       	rjmp	.+634    	; 0x1052 <__EEPROM_REGION_LENGTH__+0x52>
     dd8:	10 92 ca 02 	sts	0x02CA, r1	; 0x8002ca <refreshClavier>
					key = lireClavier();
     ddc:	ef dc       	rcall	.-1570   	; 0x7bc <lireClavier>
     dde:	80 93 d8 02 	sts	0x02D8, r24	; 0x8002d8 <key>
					
					switch(key)
     de2:	82 33       	cpi	r24, 0x32	; 50
     de4:	11 f1       	breq	.+68     	; 0xe2a <main+0x4f0>
     de6:	18 f4       	brcc	.+6      	; 0xdee <main+0x4b4>
     de8:	81 33       	cpi	r24, 0x31	; 49
     dea:	41 f0       	breq	.+16     	; 0xdfc <main+0x4c2>
     dec:	32 c1       	rjmp	.+612    	; 0x1052 <__EEPROM_REGION_LENGTH__+0x52>
     dee:	83 33       	cpi	r24, 0x33	; 51
     df0:	09 f4       	brne	.+2      	; 0xdf4 <main+0x4ba>
     df2:	97 c0       	rjmp	.+302    	; 0xf22 <main+0x5e8>
     df4:	84 33       	cpi	r24, 0x34	; 52
     df6:	09 f4       	brne	.+2      	; 0xdfa <main+0x4c0>
     df8:	10 c1       	rjmp	.+544    	; 0x101a <__EEPROM_REGION_LENGTH__+0x1a>
     dfa:	2b c1       	rjmp	.+598    	; 0x1052 <__EEPROM_REGION_LENGTH__+0x52>
					{
						case '1':
						cntMenu = 3;
     dfc:	83 e0       	ldi	r24, 0x03	; 3
     dfe:	80 93 d3 02 	sts	0x02D3, r24	; 0x8002d3 <cntMenu>
						modeActuel = DEFAULT;
     e02:	85 e0       	ldi	r24, 0x05	; 5
     e04:	80 93 ce 02 	sts	0x02CE, r24	; 0x8002ce <modeActuel>
						setTemps = 1;
     e08:	81 e0       	ldi	r24, 0x01	; 1
     e0a:	80 93 d1 02 	sts	0x02D1, r24	; 0x8002d1 <setTemps>
						lcdClearScreen();
     e0e:	d7 da       	rcall	.-2642   	; 0x3be <lcdClearScreen>
     e10:	60 e0       	ldi	r22, 0x00	; 0
						lcdSetPos(0,0);
     e12:	80 e0       	ldi	r24, 0x00	; 0
     e14:	ca da       	rcall	.-2668   	; 0x3aa <lcdSetPos>
     e16:	81 e9       	ldi	r24, 0x91	; 145
     e18:	92 e0       	ldi	r25, 0x02	; 2
						lcdPuts("Set time  OK");
     e1a:	b3 da       	rcall	.-2714   	; 0x382 <lcdPuts>
     e1c:	61 e0       	ldi	r22, 0x01	; 1
     e1e:	80 e0       	ldi	r24, 0x00	; 0
     e20:	c4 da       	rcall	.-2680   	; 0x3aa <lcdSetPos>
						lcdSetPos(0,1);
     e22:	8b e0       	ldi	r24, 0x0B	; 11
     e24:	96 e0       	ldi	r25, 0x06	; 6
     e26:	ad da       	rcall	.-2726   	; 0x382 <lcdPuts>
     e28:	14 c1       	rjmp	.+552    	; 0x1052 <__EEPROM_REGION_LENGTH__+0x52>
						lcdPuts(msgTime);
     e2a:	80 91 d0 02 	lds	r24, 0x02D0	; 0x8002d0 <heureCoupe>
     e2e:	87 31       	cpi	r24, 0x17	; 23
     e30:	20 f4       	brcc	.+8      	; 0xe3a <main+0x500>
						break;
     e32:	8f 5f       	subi	r24, 0xFF	; 255
						
						case '2':
						if(heureCoupe<23)
     e34:	80 93 d0 02 	sts	0x02D0, r24	; 0x8002d0 <heureCoupe>
     e38:	02 c0       	rjmp	.+4      	; 0xe3e <main+0x504>
     e3a:	10 92 d0 02 	sts	0x02D0, r1	; 0x8002d0 <heureCoupe>
						heureCoupe++;
     e3e:	80 91 cf 02 	lds	r24, 0x02CF	; 0x8002cf <minutesCoupe>
     e42:	8a 30       	cpi	r24, 0x0A	; 10
						else
						heureCoupe = 0;
     e44:	d8 f4       	brcc	.+54     	; 0xe7c <main+0x542>
     e46:	90 91 d0 02 	lds	r25, 0x02D0	; 0x8002d0 <heureCoupe>
						
						if((minutesCoupe<10) && (heureCoupe<10))
     e4a:	9a 30       	cpi	r25, 0x0A	; 10
     e4c:	b8 f4       	brcc	.+46     	; 0xe7c <main+0x542>
     e4e:	1f 92       	push	r1
     e50:	8f 93       	push	r24
     e52:	1f 92       	push	r1
     e54:	9f 93       	push	r25
     e56:	8e e9       	ldi	r24, 0x9E	; 158
						{
							sprintf(tempsCoupe,"0%d:0%d",heureCoupe,minutesCoupe/*,trameGpsNavPvtValide[16]*/);
     e58:	92 e0       	ldi	r25, 0x02	; 2
     e5a:	9f 93       	push	r25
     e5c:	8f 93       	push	r24
     e5e:	80 e2       	ldi	r24, 0x20	; 32
     e60:	96 e0       	ldi	r25, 0x06	; 6
     e62:	9f 93       	push	r25
     e64:	8f 93       	push	r24
     e66:	0e 94 3c 16 	call	0x2c78	; 0x2c78 <sprintf>
     e6a:	ad b7       	in	r26, 0x3d	; 61
     e6c:	be b7       	in	r27, 0x3e	; 62
     e6e:	18 96       	adiw	r26, 0x08	; 8
     e70:	0f b6       	in	r0, 0x3f	; 63
     e72:	f8 94       	cli
     e74:	be bf       	out	0x3e, r27	; 62
     e76:	0f be       	out	0x3f, r0	; 63
     e78:	ad bf       	out	0x3d, r26	; 61
     e7a:	4c c0       	rjmp	.+152    	; 0xf14 <main+0x5da>
     e7c:	8a 30       	cpi	r24, 0x0A	; 10
     e7e:	c8 f4       	brcc	.+50     	; 0xeb2 <main+0x578>
     e80:	1f 92       	push	r1
     e82:	8f 93       	push	r24
     e84:	80 91 d0 02 	lds	r24, 0x02D0	; 0x8002d0 <heureCoupe>
						}
						else if(minutesCoupe<10)
     e88:	1f 92       	push	r1
						{
							sprintf(tempsCoupe,"%d:0%d",heureCoupe,minutesCoupe/*,trameGpsNavPvtValide[16]*/);
     e8a:	8f 93       	push	r24
     e8c:	8f e9       	ldi	r24, 0x9F	; 159
     e8e:	92 e0       	ldi	r25, 0x02	; 2
     e90:	9f 93       	push	r25
     e92:	8f 93       	push	r24
     e94:	80 e2       	ldi	r24, 0x20	; 32
     e96:	96 e0       	ldi	r25, 0x06	; 6
     e98:	9f 93       	push	r25
     e9a:	8f 93       	push	r24
     e9c:	0e 94 3c 16 	call	0x2c78	; 0x2c78 <sprintf>
     ea0:	8d b7       	in	r24, 0x3d	; 61
     ea2:	9e b7       	in	r25, 0x3e	; 62
     ea4:	08 96       	adiw	r24, 0x08	; 8
     ea6:	0f b6       	in	r0, 0x3f	; 63
     ea8:	f8 94       	cli
     eaa:	9e bf       	out	0x3e, r25	; 62
     eac:	0f be       	out	0x3f, r0	; 63
     eae:	8d bf       	out	0x3d, r24	; 61
     eb0:	31 c0       	rjmp	.+98     	; 0xf14 <main+0x5da>
     eb2:	90 91 d0 02 	lds	r25, 0x02D0	; 0x8002d0 <heureCoupe>
     eb6:	9a 30       	cpi	r25, 0x0A	; 10
						}
						else if (heureCoupe<10)
     eb8:	b8 f4       	brcc	.+46     	; 0xee8 <main+0x5ae>
     eba:	1f 92       	push	r1
     ebc:	8f 93       	push	r24
     ebe:	1f 92       	push	r1
						{
							sprintf(tempsCoupe,"0%d:%d",heureCoupe,minutesCoupe/*,trameGpsNavPvtValide[16]*/);
     ec0:	9f 93       	push	r25
     ec2:	86 ea       	ldi	r24, 0xA6	; 166
     ec4:	92 e0       	ldi	r25, 0x02	; 2
     ec6:	9f 93       	push	r25
     ec8:	8f 93       	push	r24
     eca:	80 e2       	ldi	r24, 0x20	; 32
     ecc:	96 e0       	ldi	r25, 0x06	; 6
     ece:	9f 93       	push	r25
     ed0:	8f 93       	push	r24
     ed2:	0e 94 3c 16 	call	0x2c78	; 0x2c78 <sprintf>
     ed6:	ad b7       	in	r26, 0x3d	; 61
     ed8:	be b7       	in	r27, 0x3e	; 62
     eda:	18 96       	adiw	r26, 0x08	; 8
     edc:	0f b6       	in	r0, 0x3f	; 63
     ede:	f8 94       	cli
     ee0:	be bf       	out	0x3e, r27	; 62
     ee2:	0f be       	out	0x3f, r0	; 63
     ee4:	ad bf       	out	0x3d, r26	; 61
     ee6:	16 c0       	rjmp	.+44     	; 0xf14 <main+0x5da>
     ee8:	1f 92       	push	r1
     eea:	8f 93       	push	r24
     eec:	1f 92       	push	r1
						}
						else
						{
							sprintf(tempsCoupe,"%d:%d",heureCoupe,minutesCoupe/*,trameGpsNavPvtValide[16]*/);
     eee:	9f 93       	push	r25
     ef0:	87 ea       	ldi	r24, 0xA7	; 167
     ef2:	92 e0       	ldi	r25, 0x02	; 2
     ef4:	9f 93       	push	r25
     ef6:	8f 93       	push	r24
     ef8:	80 e2       	ldi	r24, 0x20	; 32
     efa:	96 e0       	ldi	r25, 0x06	; 6
     efc:	9f 93       	push	r25
     efe:	8f 93       	push	r24
     f00:	0e 94 3c 16 	call	0x2c78	; 0x2c78 <sprintf>
     f04:	8d b7       	in	r24, 0x3d	; 61
     f06:	9e b7       	in	r25, 0x3e	; 62
     f08:	08 96       	adiw	r24, 0x08	; 8
     f0a:	0f b6       	in	r0, 0x3f	; 63
     f0c:	f8 94       	cli
     f0e:	9e bf       	out	0x3e, r25	; 62
     f10:	0f be       	out	0x3f, r0	; 63
     f12:	8d bf       	out	0x3d, r24	; 61
     f14:	61 e0       	ldi	r22, 0x01	; 1
     f16:	80 e0       	ldi	r24, 0x00	; 0
     f18:	48 da       	rcall	.-2928   	; 0x3aa <lcdSetPos>
						}
						lcdSetPos(0,1);
     f1a:	80 e2       	ldi	r24, 0x20	; 32
     f1c:	96 e0       	ldi	r25, 0x06	; 6
     f1e:	31 da       	rcall	.-2974   	; 0x382 <lcdPuts>
     f20:	98 c0       	rjmp	.+304    	; 0x1052 <__EEPROM_REGION_LENGTH__+0x52>
						lcdPuts(tempsCoupe);
     f22:	80 91 cf 02 	lds	r24, 0x02CF	; 0x8002cf <minutesCoupe>
     f26:	8b 33       	cpi	r24, 0x3B	; 59
     f28:	20 f4       	brcc	.+8      	; 0xf32 <main+0x5f8>
						break;
     f2a:	8f 5f       	subi	r24, 0xFF	; 255
						
						case '3':
						if(minutesCoupe<59)
     f2c:	80 93 cf 02 	sts	0x02CF, r24	; 0x8002cf <minutesCoupe>
     f30:	02 c0       	rjmp	.+4      	; 0xf36 <main+0x5fc>
     f32:	10 92 cf 02 	sts	0x02CF, r1	; 0x8002cf <minutesCoupe>
						minutesCoupe++;
     f36:	80 91 cf 02 	lds	r24, 0x02CF	; 0x8002cf <minutesCoupe>
     f3a:	8a 30       	cpi	r24, 0x0A	; 10
						else
						minutesCoupe = 0;
     f3c:	d8 f4       	brcc	.+54     	; 0xf74 <main+0x63a>
     f3e:	90 91 d0 02 	lds	r25, 0x02D0	; 0x8002d0 <heureCoupe>
						
						if((minutesCoupe<10) && (heureCoupe<10))
     f42:	9a 30       	cpi	r25, 0x0A	; 10
     f44:	b8 f4       	brcc	.+46     	; 0xf74 <main+0x63a>
     f46:	1f 92       	push	r1
     f48:	8f 93       	push	r24
     f4a:	1f 92       	push	r1
     f4c:	9f 93       	push	r25
     f4e:	8e e9       	ldi	r24, 0x9E	; 158
						{
							sprintf(tempsCoupe,"0%d:0%d",heureCoupe,minutesCoupe/*,trameGpsNavPvtValide[16]*/);
     f50:	92 e0       	ldi	r25, 0x02	; 2
     f52:	9f 93       	push	r25
     f54:	8f 93       	push	r24
     f56:	80 e2       	ldi	r24, 0x20	; 32
     f58:	96 e0       	ldi	r25, 0x06	; 6
     f5a:	9f 93       	push	r25
     f5c:	8f 93       	push	r24
     f5e:	0e 94 3c 16 	call	0x2c78	; 0x2c78 <sprintf>
     f62:	ad b7       	in	r26, 0x3d	; 61
     f64:	be b7       	in	r27, 0x3e	; 62
     f66:	18 96       	adiw	r26, 0x08	; 8
     f68:	0f b6       	in	r0, 0x3f	; 63
     f6a:	f8 94       	cli
     f6c:	be bf       	out	0x3e, r27	; 62
     f6e:	0f be       	out	0x3f, r0	; 63
     f70:	ad bf       	out	0x3d, r26	; 61
     f72:	4c c0       	rjmp	.+152    	; 0x100c <__EEPROM_REGION_LENGTH__+0xc>
     f74:	8a 30       	cpi	r24, 0x0A	; 10
     f76:	c8 f4       	brcc	.+50     	; 0xfaa <main+0x670>
     f78:	1f 92       	push	r1
     f7a:	8f 93       	push	r24
     f7c:	80 91 d0 02 	lds	r24, 0x02D0	; 0x8002d0 <heureCoupe>
						}
						else if(minutesCoupe<10)
     f80:	1f 92       	push	r1
						{
							sprintf(tempsCoupe,"%d:0%d",heureCoupe,minutesCoupe/*,trameGpsNavPvtValide[16]*/);
     f82:	8f 93       	push	r24
     f84:	8f e9       	ldi	r24, 0x9F	; 159
     f86:	92 e0       	ldi	r25, 0x02	; 2
     f88:	9f 93       	push	r25
     f8a:	8f 93       	push	r24
     f8c:	80 e2       	ldi	r24, 0x20	; 32
     f8e:	96 e0       	ldi	r25, 0x06	; 6
     f90:	9f 93       	push	r25
     f92:	8f 93       	push	r24
     f94:	0e 94 3c 16 	call	0x2c78	; 0x2c78 <sprintf>
     f98:	8d b7       	in	r24, 0x3d	; 61
     f9a:	9e b7       	in	r25, 0x3e	; 62
     f9c:	08 96       	adiw	r24, 0x08	; 8
     f9e:	0f b6       	in	r0, 0x3f	; 63
     fa0:	f8 94       	cli
     fa2:	9e bf       	out	0x3e, r25	; 62
     fa4:	0f be       	out	0x3f, r0	; 63
     fa6:	8d bf       	out	0x3d, r24	; 61
     fa8:	31 c0       	rjmp	.+98     	; 0x100c <__EEPROM_REGION_LENGTH__+0xc>
     faa:	90 91 d0 02 	lds	r25, 0x02D0	; 0x8002d0 <heureCoupe>
     fae:	9a 30       	cpi	r25, 0x0A	; 10
						}
						else if (heureCoupe<10)
     fb0:	b8 f4       	brcc	.+46     	; 0xfe0 <main+0x6a6>
     fb2:	1f 92       	push	r1
     fb4:	8f 93       	push	r24
						{
							sprintf(tempsCoupe,"0%d:%d",heureCoupe,minutesCoupe/*,trameGpsNavPvtValide[16]*/);
     fb6:	1f 92       	push	r1
     fb8:	9f 93       	push	r25
     fba:	86 ea       	ldi	r24, 0xA6	; 166
     fbc:	92 e0       	ldi	r25, 0x02	; 2
     fbe:	9f 93       	push	r25
     fc0:	8f 93       	push	r24
     fc2:	80 e2       	ldi	r24, 0x20	; 32
     fc4:	96 e0       	ldi	r25, 0x06	; 6
     fc6:	9f 93       	push	r25
     fc8:	8f 93       	push	r24
     fca:	0e 94 3c 16 	call	0x2c78	; 0x2c78 <sprintf>
     fce:	ad b7       	in	r26, 0x3d	; 61
     fd0:	be b7       	in	r27, 0x3e	; 62
     fd2:	18 96       	adiw	r26, 0x08	; 8
     fd4:	0f b6       	in	r0, 0x3f	; 63
     fd6:	f8 94       	cli
     fd8:	be bf       	out	0x3e, r27	; 62
     fda:	0f be       	out	0x3f, r0	; 63
						}
						else
						{
							sprintf(tempsCoupe,"%d:%d",heureCoupe,minutesCoupe/*,trameGpsNavPvtValide[16]*/);
     fdc:	ad bf       	out	0x3d, r26	; 61
     fde:	16 c0       	rjmp	.+44     	; 0x100c <__EEPROM_REGION_LENGTH__+0xc>
     fe0:	1f 92       	push	r1
     fe2:	8f 93       	push	r24
     fe4:	1f 92       	push	r1
     fe6:	9f 93       	push	r25
     fe8:	87 ea       	ldi	r24, 0xA7	; 167
     fea:	92 e0       	ldi	r25, 0x02	; 2
     fec:	9f 93       	push	r25
     fee:	8f 93       	push	r24
     ff0:	80 e2       	ldi	r24, 0x20	; 32
     ff2:	96 e0       	ldi	r25, 0x06	; 6
     ff4:	9f 93       	push	r25
     ff6:	8f 93       	push	r24
     ff8:	0e 94 3c 16 	call	0x2c78	; 0x2c78 <sprintf>
     ffc:	8d b7       	in	r24, 0x3d	; 61
     ffe:	9e b7       	in	r25, 0x3e	; 62
    1000:	08 96       	adiw	r24, 0x08	; 8
    1002:	0f b6       	in	r0, 0x3f	; 63
						}
						lcdSetPos(0,1);
    1004:	f8 94       	cli
    1006:	9e bf       	out	0x3e, r25	; 62
    1008:	0f be       	out	0x3f, r0	; 63
    100a:	8d bf       	out	0x3d, r24	; 61
						lcdPuts(tempsCoupe);
    100c:	61 e0       	ldi	r22, 0x01	; 1
    100e:	80 e0       	ldi	r24, 0x00	; 0
    1010:	cc d9       	rcall	.-3176   	; 0x3aa <lcdSetPos>
    1012:	80 e2       	ldi	r24, 0x20	; 32
						break;
						
						case '4':
						cntMenu = 3;
    1014:	96 e0       	ldi	r25, 0x06	; 6
    1016:	b5 d9       	rcall	.-3222   	; 0x382 <lcdPuts>
    1018:	1c c0       	rjmp	.+56     	; 0x1052 <__EEPROM_REGION_LENGTH__+0x52>
						modeActuel = DEFAULT;
    101a:	83 e0       	ldi	r24, 0x03	; 3
    101c:	80 93 d3 02 	sts	0x02D3, r24	; 0x8002d3 <cntMenu>
						setTemps = 1;
    1020:	c5 e0       	ldi	r28, 0x05	; 5
    1022:	c0 93 ce 02 	sts	0x02CE, r28	; 0x8002ce <modeActuel>
						lcdClearScreen();
    1026:	81 e0       	ldi	r24, 0x01	; 1
    1028:	80 93 d1 02 	sts	0x02D1, r24	; 0x8002d1 <setTemps>
						memset(tempsCoupe, 0, sizeof(tempsCoupe));
    102c:	c8 d9       	rcall	.-3184   	; 0x3be <lcdClearScreen>
    102e:	e0 e2       	ldi	r30, 0x20	; 32
    1030:	f6 e0       	ldi	r31, 0x06	; 6
    1032:	df 01       	movw	r26, r30
    1034:	1d 92       	st	X+, r1
						lcdSetPos(0,0);
    1036:	ca 95       	dec	r28
    1038:	e9 f7       	brne	.-6      	; 0x1034 <__EEPROM_REGION_LENGTH__+0x34>
    103a:	60 e0       	ldi	r22, 0x00	; 0
    103c:	80 e0       	ldi	r24, 0x00	; 0
						lcdPuts("Set time    ");
    103e:	b5 d9       	rcall	.-3222   	; 0x3aa <lcdSetPos>
    1040:	8d e6       	ldi	r24, 0x6D	; 109
    1042:	92 e0       	ldi	r25, 0x02	; 2
    1044:	9e d9       	rcall	.-3268   	; 0x382 <lcdPuts>
						lcdSetPos(0,1);
    1046:	61 e0       	ldi	r22, 0x01	; 1
    1048:	80 e0       	ldi	r24, 0x00	; 0
    104a:	af d9       	rcall	.-3234   	; 0x3aa <lcdSetPos>
    104c:	8b e0       	ldi	r24, 0x0B	; 11
						lcdPuts(msgTime);
    104e:	96 e0       	ldi	r25, 0x06	; 6
    1050:	98 d9       	rcall	.-3280   	; 0x382 <lcdPuts>
    1052:	80 91 d1 02 	lds	r24, 0x02D1	; 0x8002d1 <setTemps>
						break;
					}
				}
			} while (setTemps == 0);
    1056:	88 23       	and	r24, r24
    1058:	09 f4       	brne	.+2      	; 0x105c <__EEPROM_REGION_LENGTH__+0x5c>
    105a:	b9 ce       	rjmp	.-654    	; 0xdce <main+0x494>
    105c:	2a cd       	rjmp	.-1452   	; 0xab2 <main+0x178>
    105e:	80 91 ca 02 	lds	r24, 0x02CA	; 0x8002ca <refreshClavier>
			break;
			
			case SET_NIP:
			do{
				if(refreshClavier)
    1062:	88 23       	and	r24, r24
    1064:	09 f4       	brne	.+2      	; 0x1068 <__EEPROM_REGION_LENGTH__+0x68>
    1066:	50 c0       	rjmp	.+160    	; 0x1108 <__EEPROM_REGION_LENGTH__+0x108>
				{
					refreshClavier = 0;
    1068:	10 92 ca 02 	sts	0x02CA, r1	; 0x8002ca <refreshClavier>
					key = lireClavier();
    106c:	a7 db       	rcall	.-2226   	; 0x7bc <lireClavier>
    106e:	80 93 d8 02 	sts	0x02D8, r24	; 0x8002d8 <key>
					
					if((key)&&(!lastKey))
    1072:	88 23       	and	r24, r24
    1074:	a9 f0       	breq	.+42     	; 0x10a0 <__EEPROM_REGION_LENGTH__+0xa0>
    1076:	80 91 d7 02 	lds	r24, 0x02D7	; 0x8002d7 <lastKey>
    107a:	81 11       	cpse	r24, r1
					{
						lcdSetPos(cntPassword,1);
    107c:	11 c0       	rjmp	.+34     	; 0x10a0 <__EEPROM_REGION_LENGTH__+0xa0>
    107e:	61 e0       	ldi	r22, 0x01	; 1
    1080:	80 91 d6 02 	lds	r24, 0x02D6	; 0x8002d6 <cntPassword>
    1084:	92 d9       	rcall	.-3292   	; 0x3aa <lcdSetPos>
						essaiUser[cntPassword++] = key;
    1086:	e0 91 d6 02 	lds	r30, 0x02D6	; 0x8002d6 <cntPassword>
    108a:	81 e0       	ldi	r24, 0x01	; 1
    108c:	8e 0f       	add	r24, r30
    108e:	80 93 d6 02 	sts	0x02D6, r24	; 0x8002d6 <cntPassword>
    1092:	f0 e0       	ldi	r31, 0x00	; 0
    1094:	80 91 d8 02 	lds	r24, 0x02D8	; 0x8002d8 <key>
    1098:	ed 50       	subi	r30, 0x0D	; 13
    109a:	fa 4f       	sbci	r31, 0xFA	; 250
    109c:	80 83       	st	Z, r24
						lcdPutc(key);
    109e:	6e d9       	rcall	.-3364   	; 0x37c <lcdPutc>
    10a0:	80 91 d8 02 	lds	r24, 0x02D8	; 0x8002d8 <key>
					}
					lastKey = key;
    10a4:	80 93 d7 02 	sts	0x02D7, r24	; 0x8002d7 <lastKey>
    10a8:	80 91 d6 02 	lds	r24, 0x02D6	; 0x8002d6 <cntPassword>
					if(cntPassword == 4)
    10ac:	84 30       	cpi	r24, 0x04	; 4
    10ae:	41 f5       	brne	.+80     	; 0x1100 <__EEPROM_REGION_LENGTH__+0x100>
    10b0:	0c c0       	rjmp	.+24     	; 0x10ca <__EEPROM_REGION_LENGTH__+0xca>
    10b2:	82 2f       	mov	r24, r18
					{
						for(uint8_t index = 0; index<4; index++)
						{
							password[index] = essaiUser[index];
    10b4:	90 e0       	ldi	r25, 0x00	; 0
    10b6:	fc 01       	movw	r30, r24
    10b8:	ed 50       	subi	r30, 0x0D	; 13
    10ba:	fa 4f       	sbci	r31, 0xFA	; 250
    10bc:	30 81       	ld	r19, Z
    10be:	fc 01       	movw	r30, r24
    10c0:	ef 5f       	subi	r30, 0xFF	; 255
    10c2:	fd 4f       	sbci	r31, 0xFD	; 253
    10c4:	30 83       	st	Z, r19
    10c6:	2f 5f       	subi	r18, 0xFF	; 255
						lcdPutc(key);
					}
					lastKey = key;
					if(cntPassword == 4)
					{
						for(uint8_t index = 0; index<4; index++)
    10c8:	01 c0       	rjmp	.+2      	; 0x10cc <__EEPROM_REGION_LENGTH__+0xcc>
    10ca:	20 e0       	ldi	r18, 0x00	; 0
    10cc:	24 30       	cpi	r18, 0x04	; 4
    10ce:	88 f3       	brcs	.-30     	; 0x10b2 <__EEPROM_REGION_LENGTH__+0xb2>
    10d0:	84 e0       	ldi	r24, 0x04	; 4
						{
							password[index] = essaiUser[index];
						}
						cntMenu = 4;
    10d2:	80 93 d3 02 	sts	0x02D3, r24	; 0x8002d3 <cntMenu>
    10d6:	85 e0       	ldi	r24, 0x05	; 5
						modeActuel = DEFAULT;
    10d8:	80 93 ce 02 	sts	0x02CE, r24	; 0x8002ce <modeActuel>
    10dc:	81 e0       	ldi	r24, 0x01	; 1
						passwordValid = 1;
    10de:	80 93 d5 02 	sts	0x02D5, r24	; 0x8002d5 <passwordValid>
    10e2:	10 92 d6 02 	sts	0x02D6, r1	; 0x8002d6 <cntPassword>
						cntPassword = 0;
    10e6:	6b d9       	rcall	.-3370   	; 0x3be <lcdClearScreen>
						lcdClearScreen();
    10e8:	60 e0       	ldi	r22, 0x00	; 0
    10ea:	80 e0       	ldi	r24, 0x00	; 0
						lcdSetPos(0,0);
    10ec:	5e d9       	rcall	.-3396   	; 0x3aa <lcdSetPos>
    10ee:	8d ea       	ldi	r24, 0xAD	; 173
    10f0:	92 e0       	ldi	r25, 0x02	; 2
    10f2:	47 d9       	rcall	.-3442   	; 0x382 <lcdPuts>
						lcdPuts("Set password OK");
    10f4:	61 e0       	ldi	r22, 0x01	; 1
    10f6:	80 e0       	ldi	r24, 0x00	; 0
    10f8:	58 d9       	rcall	.-3408   	; 0x3aa <lcdSetPos>
    10fa:	8b e0       	ldi	r24, 0x0B	; 11
						lcdSetPos(0,1);
    10fc:	96 e0       	ldi	r25, 0x06	; 6
    10fe:	41 d9       	rcall	.-3454   	; 0x382 <lcdPuts>
    1100:	80 91 d8 02 	lds	r24, 0x02D8	; 0x8002d8 <key>
						lcdPuts(msgTime);
    1104:	80 93 d7 02 	sts	0x02D7, r24	; 0x8002d7 <lastKey>
    1108:	80 91 d5 02 	lds	r24, 0x02D5	; 0x8002d5 <passwordValid>
					}
					lastKey = key;
    110c:	88 23       	and	r24, r24
    110e:	09 f4       	brne	.+2      	; 0x1112 <__EEPROM_REGION_LENGTH__+0x112>
    1110:	a6 cf       	rjmp	.-180    	; 0x105e <__EEPROM_REGION_LENGTH__+0x5e>
    1112:	cf cc       	rjmp	.-1634   	; 0xab2 <main+0x178>

00001114 <usart0Init>:
				}
			}while(!passwordValid);
    1114:	8f 92       	push	r8
    1116:	9f 92       	push	r9
    1118:	af 92       	push	r10
    111a:	bf 92       	push	r11
    111c:	cf 92       	push	r12
    111e:	df 92       	push	r13
	{
		if(!usart0SendByte(source[i]))
		nbOctet++;
	}
	return nbOctet;
}
    1120:	ef 92       	push	r14
    1122:	ff 92       	push	r15
    1124:	cf 93       	push	r28
    1126:	df 93       	push	r29
    1128:	49 01       	movw	r8, r18
    112a:	5a 01       	movw	r10, r20
    112c:	c1 ec       	ldi	r28, 0xC1	; 193
    112e:	d0 e0       	ldi	r29, 0x00	; 0
    1130:	28 e1       	ldi	r18, 0x18	; 24
    1132:	28 83       	st	Y, r18
    1134:	26 e0       	ldi	r18, 0x06	; 6
    1136:	20 93 c2 00 	sts	0x00C2, r18	; 0x8000c2 <__TEXT_REGION_LENGTH__+0x7c00c2>
    113a:	6b d7       	rcall	.+3798   	; 0x2012 <__floatunsisf>
    113c:	20 e0       	ldi	r18, 0x00	; 0
    113e:	30 e0       	ldi	r19, 0x00	; 0
    1140:	40 e8       	ldi	r20, 0x80	; 128
    1142:	51 e4       	ldi	r21, 0x41	; 65
    1144:	f4 d7       	rcall	.+4072   	; 0x212e <__mulsf3>
    1146:	6b 01       	movw	r12, r22
    1148:	7c 01       	movw	r14, r24
    114a:	c5 01       	movw	r24, r10
    114c:	b4 01       	movw	r22, r8
    114e:	61 d7       	rcall	.+3778   	; 0x2012 <__floatunsisf>
    1150:	a7 01       	movw	r20, r14
    1152:	96 01       	movw	r18, r12
    1154:	ca d6       	rcall	.+3476   	; 0x1eea <__divsf3>
    1156:	20 e0       	ldi	r18, 0x00	; 0
    1158:	30 e0       	ldi	r19, 0x00	; 0
    115a:	40 e0       	ldi	r20, 0x00	; 0
    115c:	5f e3       	ldi	r21, 0x3F	; 63
    115e:	60 d6       	rcall	.+3264   	; 0x1e20 <__subsf3>
    1160:	2c d7       	rcall	.+3672   	; 0x1fba <__fixunssfsi>
    1162:	70 93 c5 00 	sts	0x00C5, r23	; 0x8000c5 <__TEXT_REGION_LENGTH__+0x7c00c5>
    1166:	60 93 c4 00 	sts	0x00C4, r22	; 0x8000c4 <__TEXT_REGION_LENGTH__+0x7c00c4>
    116a:	88 81       	ld	r24, Y
    116c:	80 68       	ori	r24, 0x80	; 128
    116e:	88 83       	st	Y, r24
    1170:	78 94       	sei
    1172:	df 91       	pop	r29
    1174:	cf 91       	pop	r28
    1176:	ff 90       	pop	r15
    1178:	ef 90       	pop	r14
    117a:	df 90       	pop	r13
    117c:	cf 90       	pop	r12
    117e:	bf 90       	pop	r11
    1180:	af 90       	pop	r10
    1182:	9f 90       	pop	r9
    1184:	8f 90       	pop	r8
    1186:	08 95       	ret

00001188 <usart0RxAvailable>:
    1188:	80 91 f0 02 	lds	r24, 0x02F0	; 0x8002f0 <rxCntLiDAR>
    118c:	08 95       	ret

0000118e <usart0RemRxData>:
    118e:	80 91 f0 02 	lds	r24, 0x02F0	; 0x8002f0 <rxCntLiDAR>
    1192:	88 23       	and	r24, r24
    1194:	c9 f0       	breq	.+50     	; 0x11c8 <usart0RemRxData+0x3a>
    1196:	e0 91 f1 02 	lds	r30, 0x02F1	; 0x8002f1 <rxBufferOutLiDAR>
    119a:	81 e0       	ldi	r24, 0x01	; 1
    119c:	8e 0f       	add	r24, r30
    119e:	80 93 f1 02 	sts	0x02F1, r24	; 0x8002f1 <rxBufferOutLiDAR>
    11a2:	f0 e0       	ldi	r31, 0x00	; 0
    11a4:	eb 59       	subi	r30, 0x9B	; 155
    11a6:	f9 4f       	sbci	r31, 0xF9	; 249
    11a8:	80 81       	ld	r24, Z
    11aa:	80 93 ee 02 	sts	0x02EE, r24	; 0x8002ee <rxContentLiDAR>
    11ae:	f8 94       	cli
    11b0:	80 91 f0 02 	lds	r24, 0x02F0	; 0x8002f0 <rxCntLiDAR>
    11b4:	81 50       	subi	r24, 0x01	; 1
    11b6:	80 93 f0 02 	sts	0x02F0, r24	; 0x8002f0 <rxCntLiDAR>
    11ba:	78 94       	sei
    11bc:	80 91 f1 02 	lds	r24, 0x02F1	; 0x8002f1 <rxBufferOutLiDAR>
    11c0:	80 34       	cpi	r24, 0x40	; 64
    11c2:	10 f0       	brcs	.+4      	; 0x11c8 <usart0RemRxData+0x3a>
    11c4:	10 92 f1 02 	sts	0x02F1, r1	; 0x8002f1 <rxBufferOutLiDAR>
    11c8:	80 91 ee 02 	lds	r24, 0x02EE	; 0x8002ee <rxContentLiDAR>
    11cc:	08 95       	ret

000011ce <__vector_26>:

ISR(USART0_UDRE_vect)//a chaque fois que l'interruption est appeller le programme tansmet des donnes avec le registre UDR1 si il y a bien une donne a transmettre.
{
    11ce:	1f 92       	push	r1
    11d0:	0f 92       	push	r0
    11d2:	0f b6       	in	r0, 0x3f	; 63
    11d4:	0f 92       	push	r0
    11d6:	11 24       	eor	r1, r1
    11d8:	0b b6       	in	r0, 0x3b	; 59
    11da:	0f 92       	push	r0
    11dc:	8f 93       	push	r24
    11de:	ef 93       	push	r30
    11e0:	ff 93       	push	r31
	if(!txCntLiDAR)
    11e2:	80 91 ef 02 	lds	r24, 0x02EF	; 0x8002ef <txCntLiDAR>
    11e6:	81 11       	cpse	r24, r1
    11e8:	06 c0       	rjmp	.+12     	; 0x11f6 <__vector_26+0x28>
	{
		UCSR0B &= ~(1<<UDRIE0);//desactive l'interruption si il n'y a pus de contenu dans txCnt
    11ea:	e1 ec       	ldi	r30, 0xC1	; 193
    11ec:	f0 e0       	ldi	r31, 0x00	; 0
    11ee:	80 81       	ld	r24, Z
    11f0:	8f 7d       	andi	r24, 0xDF	; 223
    11f2:	80 83       	st	Z, r24
    11f4:	17 c0       	rjmp	.+46     	; 0x1224 <__vector_26+0x56>
	}
	else
	{
		UDR0 = txBufferLiDAR[txBufferOutLiDAR++];//sert a transmettre les donnes du txBuffer vers le PC
    11f6:	e0 91 f2 02 	lds	r30, 0x02F2	; 0x8002f2 <txBufferOutLiDAR>
    11fa:	81 e0       	ldi	r24, 0x01	; 1
    11fc:	8e 0f       	add	r24, r30
    11fe:	80 93 f2 02 	sts	0x02F2, r24	; 0x8002f2 <txBufferOutLiDAR>
    1202:	f0 e0       	ldi	r31, 0x00	; 0
    1204:	eb 5d       	subi	r30, 0xDB	; 219
    1206:	f9 4f       	sbci	r31, 0xF9	; 249
    1208:	80 81       	ld	r24, Z
    120a:	80 93 c6 00 	sts	0x00C6, r24	; 0x8000c6 <__TEXT_REGION_LENGTH__+0x7c00c6>
		txCntLiDAR--;
    120e:	80 91 ef 02 	lds	r24, 0x02EF	; 0x8002ef <txCntLiDAR>
    1212:	81 50       	subi	r24, 0x01	; 1
    1214:	80 93 ef 02 	sts	0x02EF, r24	; 0x8002ef <txCntLiDAR>
		if(txBufferOutLiDAR >= TX_BUFFER_SIZE_LIDAR)
    1218:	80 91 f2 02 	lds	r24, 0x02F2	; 0x8002f2 <txBufferOutLiDAR>
    121c:	80 34       	cpi	r24, 0x40	; 64
    121e:	10 f0       	brcs	.+4      	; 0x1224 <__vector_26+0x56>
		txBufferOutLiDAR = 0;
    1220:	10 92 f2 02 	sts	0x02F2, r1	; 0x8002f2 <txBufferOutLiDAR>
	}
}
    1224:	ff 91       	pop	r31
    1226:	ef 91       	pop	r30
    1228:	8f 91       	pop	r24
    122a:	0f 90       	pop	r0
    122c:	0b be       	out	0x3b, r0	; 59
    122e:	0f 90       	pop	r0
    1230:	0f be       	out	0x3f, r0	; 63
    1232:	0f 90       	pop	r0
    1234:	1f 90       	pop	r1
    1236:	18 95       	reti

00001238 <__vector_25>:
volatile uint8_t _usartRxTmpLiDAR;
ISR(USART0_RX_vect)//cette interruption est semblable a la derniere mais celle ci gere la reception des donnes du atmega32u4 en mettant les valeurs du rx buffer dans UDR1.
{
    1238:	1f 92       	push	r1
    123a:	0f 92       	push	r0
    123c:	0f b6       	in	r0, 0x3f	; 63
    123e:	0f 92       	push	r0
    1240:	11 24       	eor	r1, r1
    1242:	0b b6       	in	r0, 0x3b	; 59
    1244:	0f 92       	push	r0
    1246:	8f 93       	push	r24
    1248:	9f 93       	push	r25
    124a:	ef 93       	push	r30
    124c:	ff 93       	push	r31
	_usartRxTmpLiDAR = UDR0;
    124e:	80 91 c6 00 	lds	r24, 0x00C6	; 0x8000c6 <__TEXT_REGION_LENGTH__+0x7c00c6>
    1252:	80 93 a5 06 	sts	0x06A5, r24	; 0x8006a5 <_usartRxTmpLiDAR>
	if(rxCntLiDAR<RX_BUFFER_SIZE_LIDAR)
    1256:	80 91 f0 02 	lds	r24, 0x02F0	; 0x8002f0 <rxCntLiDAR>
    125a:	80 34       	cpi	r24, 0x40	; 64
    125c:	a8 f4       	brcc	.+42     	; 0x1288 <__vector_25+0x50>
	{
		rxBufferLiDAR[rxBufferInLiDAR++] = _usartRxTmpLiDAR;//recoit les valeurs en reception et les met dans le regisre UDR1
    125e:	e0 91 f3 02 	lds	r30, 0x02F3	; 0x8002f3 <rxBufferInLiDAR>
    1262:	91 e0       	ldi	r25, 0x01	; 1
    1264:	9e 0f       	add	r25, r30
    1266:	90 93 f3 02 	sts	0x02F3, r25	; 0x8002f3 <rxBufferInLiDAR>
    126a:	f0 e0       	ldi	r31, 0x00	; 0
    126c:	90 91 a5 06 	lds	r25, 0x06A5	; 0x8006a5 <_usartRxTmpLiDAR>
    1270:	eb 59       	subi	r30, 0x9B	; 155
    1272:	f9 4f       	sbci	r31, 0xF9	; 249
    1274:	90 83       	st	Z, r25
		rxCntLiDAR++;
    1276:	8f 5f       	subi	r24, 0xFF	; 255
    1278:	80 93 f0 02 	sts	0x02F0, r24	; 0x8002f0 <rxCntLiDAR>
		if(rxBufferInLiDAR >= RX_BUFFER_SIZE_LIDAR)//Si le buffer de reception est plein le buffer se met a 0
    127c:	80 91 f3 02 	lds	r24, 0x02F3	; 0x8002f3 <rxBufferInLiDAR>
    1280:	80 34       	cpi	r24, 0x40	; 64
    1282:	10 f0       	brcs	.+4      	; 0x1288 <__vector_25+0x50>
		rxBufferInLiDAR = 0;
    1284:	10 92 f3 02 	sts	0x02F3, r1	; 0x8002f3 <rxBufferInLiDAR>
	}
    1288:	ff 91       	pop	r31
    128a:	ef 91       	pop	r30
    128c:	9f 91       	pop	r25
    128e:	8f 91       	pop	r24
    1290:	0f 90       	pop	r0
    1292:	0b be       	out	0x3b, r0	; 59
    1294:	0f 90       	pop	r0
    1296:	0f be       	out	0x3f, r0	; 63
    1298:	0f 90       	pop	r0
    129a:	1f 90       	pop	r1
    129c:	18 95       	reti

0000129e <usartGpsSendByte>:
		if(!usartGpsSendByte(str[i]))
		cntStr++;
	}
	
	return cntStr;
}
    129e:	90 91 f5 02 	lds	r25, 0x02F5	; 0x8002f5 <txCntGPS>
    12a2:	99 23       	and	r25, r25
    12a4:	f4 f0       	brlt	.+60     	; 0x12e2 <usartGpsSendByte+0x44>
    12a6:	e0 91 fa 02 	lds	r30, 0x02FA	; 0x8002fa <txBufferInGPS>
    12aa:	91 e0       	ldi	r25, 0x01	; 1
    12ac:	9e 0f       	add	r25, r30
    12ae:	90 93 fa 02 	sts	0x02FA, r25	; 0x8002fa <txBufferInGPS>
    12b2:	f0 e0       	ldi	r31, 0x00	; 0
    12b4:	ea 55       	subi	r30, 0x5A	; 90
    12b6:	f9 4f       	sbci	r31, 0xF9	; 249
    12b8:	80 83       	st	Z, r24
    12ba:	f8 94       	cli
    12bc:	80 91 f5 02 	lds	r24, 0x02F5	; 0x8002f5 <txCntGPS>
    12c0:	8f 5f       	subi	r24, 0xFF	; 255
    12c2:	80 93 f5 02 	sts	0x02F5, r24	; 0x8002f5 <txCntGPS>
    12c6:	78 94       	sei
    12c8:	80 91 fa 02 	lds	r24, 0x02FA	; 0x8002fa <txBufferInGPS>
    12cc:	88 23       	and	r24, r24
    12ce:	14 f4       	brge	.+4      	; 0x12d4 <usartGpsSendByte+0x36>
    12d0:	10 92 fa 02 	sts	0x02FA, r1	; 0x8002fa <txBufferInGPS>
    12d4:	e9 ec       	ldi	r30, 0xC9	; 201
    12d6:	f0 e0       	ldi	r31, 0x00	; 0
    12d8:	80 81       	ld	r24, Z
    12da:	80 62       	ori	r24, 0x20	; 32
    12dc:	80 83       	st	Z, r24
    12de:	80 e0       	ldi	r24, 0x00	; 0
    12e0:	08 95       	ret
    12e2:	81 e0       	ldi	r24, 0x01	; 1
    12e4:	08 95       	ret

000012e6 <usartGpsInit>:
    12e6:	8f 92       	push	r8
    12e8:	9f 92       	push	r9
    12ea:	af 92       	push	r10
    12ec:	bf 92       	push	r11
    12ee:	cf 92       	push	r12
    12f0:	df 92       	push	r13
    12f2:	ef 92       	push	r14
    12f4:	ff 92       	push	r15
    12f6:	cf 93       	push	r28
    12f8:	df 93       	push	r29
    12fa:	49 01       	movw	r8, r18
    12fc:	5a 01       	movw	r10, r20
    12fe:	c9 ec       	ldi	r28, 0xC9	; 201
    1300:	d0 e0       	ldi	r29, 0x00	; 0
    1302:	28 e1       	ldi	r18, 0x18	; 24
    1304:	28 83       	st	Y, r18
    1306:	26 e0       	ldi	r18, 0x06	; 6
    1308:	20 93 ca 00 	sts	0x00CA, r18	; 0x8000ca <__TEXT_REGION_LENGTH__+0x7c00ca>
    130c:	82 d6       	rcall	.+3332   	; 0x2012 <__floatunsisf>
    130e:	20 e0       	ldi	r18, 0x00	; 0
    1310:	30 e0       	ldi	r19, 0x00	; 0
    1312:	40 e8       	ldi	r20, 0x80	; 128
    1314:	51 e4       	ldi	r21, 0x41	; 65
    1316:	0b d7       	rcall	.+3606   	; 0x212e <__mulsf3>
    1318:	6b 01       	movw	r12, r22
    131a:	7c 01       	movw	r14, r24
    131c:	c5 01       	movw	r24, r10
    131e:	b4 01       	movw	r22, r8
    1320:	78 d6       	rcall	.+3312   	; 0x2012 <__floatunsisf>
    1322:	a7 01       	movw	r20, r14
    1324:	96 01       	movw	r18, r12
    1326:	e1 d5       	rcall	.+3010   	; 0x1eea <__divsf3>
    1328:	20 e0       	ldi	r18, 0x00	; 0
    132a:	30 e0       	ldi	r19, 0x00	; 0
    132c:	40 e0       	ldi	r20, 0x00	; 0
    132e:	5f e3       	ldi	r21, 0x3F	; 63
    1330:	77 d5       	rcall	.+2798   	; 0x1e20 <__subsf3>
    1332:	43 d6       	rcall	.+3206   	; 0x1fba <__fixunssfsi>
    1334:	70 93 cd 00 	sts	0x00CD, r23	; 0x8000cd <__TEXT_REGION_LENGTH__+0x7c00cd>
    1338:	60 93 cc 00 	sts	0x00CC, r22	; 0x8000cc <__TEXT_REGION_LENGTH__+0x7c00cc>
    133c:	88 81       	ld	r24, Y
    133e:	80 68       	ori	r24, 0x80	; 128
    1340:	88 83       	st	Y, r24
    1342:	78 94       	sei
    1344:	df 91       	pop	r29
    1346:	cf 91       	pop	r28
    1348:	ff 90       	pop	r15
    134a:	ef 90       	pop	r14
    134c:	df 90       	pop	r13
    134e:	cf 90       	pop	r12
    1350:	bf 90       	pop	r11
    1352:	af 90       	pop	r10
    1354:	9f 90       	pop	r9
    1356:	8f 90       	pop	r8
    1358:	08 95       	ret

0000135a <usartGpsRxAvailable>:
    135a:	80 91 f6 02 	lds	r24, 0x02F6	; 0x8002f6 <rxCntGPS>
    135e:	08 95       	ret

00001360 <usartGpsRemRxData>:
    1360:	80 91 f6 02 	lds	r24, 0x02F6	; 0x8002f6 <rxCntGPS>
    1364:	88 23       	and	r24, r24
    1366:	c9 f0       	breq	.+50     	; 0x139a <usartGpsRemRxData+0x3a>
    1368:	e0 91 f7 02 	lds	r30, 0x02F7	; 0x8002f7 <rxBufferOutGPS>
    136c:	81 e0       	ldi	r24, 0x01	; 1
    136e:	8e 0f       	add	r24, r30
    1370:	80 93 f7 02 	sts	0x02F7, r24	; 0x8002f7 <rxBufferOutGPS>
    1374:	f0 e0       	ldi	r31, 0x00	; 0
    1376:	e9 5d       	subi	r30, 0xD9	; 217
    1378:	f8 4f       	sbci	r31, 0xF8	; 248
    137a:	80 81       	ld	r24, Z
    137c:	80 93 f4 02 	sts	0x02F4, r24	; 0x8002f4 <rxContentGPS>
    1380:	f8 94       	cli
    1382:	80 91 f6 02 	lds	r24, 0x02F6	; 0x8002f6 <rxCntGPS>
    1386:	81 50       	subi	r24, 0x01	; 1
    1388:	80 93 f6 02 	sts	0x02F6, r24	; 0x8002f6 <rxCntGPS>
    138c:	78 94       	sei
    138e:	80 91 f7 02 	lds	r24, 0x02F7	; 0x8002f7 <rxBufferOutGPS>
    1392:	88 23       	and	r24, r24
    1394:	14 f4       	brge	.+4      	; 0x139a <usartGpsRemRxData+0x3a>
    1396:	10 92 f7 02 	sts	0x02F7, r1	; 0x8002f7 <rxBufferOutGPS>
    139a:	80 91 f4 02 	lds	r24, 0x02F4	; 0x8002f4 <rxContentGPS>
    139e:	08 95       	ret

000013a0 <usartGpsSendBytes>:
* @param uint8_t size Recoit la longueur de la string a transmettre vers le PC.
* @return nombre d'octets ajoutes a la transmission
*/

uint8_t usartGpsSendBytes(const uint8_t * source, uint8_t size)
{
    13a0:	ef 92       	push	r14
    13a2:	ff 92       	push	r15
    13a4:	1f 93       	push	r17
    13a6:	cf 93       	push	r28
    13a8:	df 93       	push	r29
    13aa:	7c 01       	movw	r14, r24
    13ac:	16 2f       	mov	r17, r22
	uint8_t nbOctet = 0;
	
	for(uint8_t i = 0;i<size;i++)
    13ae:	c0 e0       	ldi	r28, 0x00	; 0
* @return nombre d'octets ajoutes a la transmission
*/

uint8_t usartGpsSendBytes(const uint8_t * source, uint8_t size)
{
	uint8_t nbOctet = 0;
    13b0:	d0 e0       	ldi	r29, 0x00	; 0
	
	for(uint8_t i = 0;i<size;i++)
    13b2:	09 c0       	rjmp	.+18     	; 0x13c6 <usartGpsSendBytes+0x26>
	{
		if(!usartGpsSendByte(source[i]))
    13b4:	f7 01       	movw	r30, r14
    13b6:	ec 0f       	add	r30, r28
    13b8:	f1 1d       	adc	r31, r1
    13ba:	80 81       	ld	r24, Z
    13bc:	70 df       	rcall	.-288    	; 0x129e <usartGpsSendByte>
    13be:	81 11       	cpse	r24, r1
    13c0:	01 c0       	rjmp	.+2      	; 0x13c4 <usartGpsSendBytes+0x24>
		nbOctet++;
    13c2:	df 5f       	subi	r29, 0xFF	; 255

uint8_t usartGpsSendBytes(const uint8_t * source, uint8_t size)
{
	uint8_t nbOctet = 0;
	
	for(uint8_t i = 0;i<size;i++)
    13c4:	cf 5f       	subi	r28, 0xFF	; 255
    13c6:	c1 17       	cp	r28, r17
    13c8:	a8 f3       	brcs	.-22     	; 0x13b4 <usartGpsSendBytes+0x14>
		if(!usartGpsSendByte(source[i]))
		nbOctet++;
		
	}
	return nbOctet;
}
    13ca:	8d 2f       	mov	r24, r29
    13cc:	df 91       	pop	r29
    13ce:	cf 91       	pop	r28
    13d0:	1f 91       	pop	r17
    13d2:	ff 90       	pop	r15
    13d4:	ef 90       	pop	r14
    13d6:	08 95       	ret

000013d8 <__vector_37>:

ISR(USART1_UDRE_vect)//a chaque fois que l'interruption est appeller le programme tansmet des donnes avec le registre UDR1 si il y a bien une donne a transmettre.
{
    13d8:	1f 92       	push	r1
    13da:	0f 92       	push	r0
    13dc:	0f b6       	in	r0, 0x3f	; 63
    13de:	0f 92       	push	r0
    13e0:	11 24       	eor	r1, r1
    13e2:	0b b6       	in	r0, 0x3b	; 59
    13e4:	0f 92       	push	r0
    13e6:	8f 93       	push	r24
    13e8:	ef 93       	push	r30
    13ea:	ff 93       	push	r31
	if(!txCntGPS)
    13ec:	80 91 f5 02 	lds	r24, 0x02F5	; 0x8002f5 <txCntGPS>
    13f0:	81 11       	cpse	r24, r1
    13f2:	06 c0       	rjmp	.+12     	; 0x1400 <__vector_37+0x28>
	{
		UCSR1B &= ~(1<<UDRIE1);//desactive l'interruption si il n'y a pus de contenu dans txCnt
    13f4:	e9 ec       	ldi	r30, 0xC9	; 201
    13f6:	f0 e0       	ldi	r31, 0x00	; 0
    13f8:	80 81       	ld	r24, Z
    13fa:	8f 7d       	andi	r24, 0xDF	; 223
    13fc:	80 83       	st	Z, r24
    13fe:	17 c0       	rjmp	.+46     	; 0x142e <__vector_37+0x56>
	}
	else
	{
		UDR1 = txBufferGPS[txBufferOutGPS++];//sert a transmettre les donnes du txBuffer vers le PC
    1400:	e0 91 f8 02 	lds	r30, 0x02F8	; 0x8002f8 <txBufferOutGPS>
    1404:	81 e0       	ldi	r24, 0x01	; 1
    1406:	8e 0f       	add	r24, r30
    1408:	80 93 f8 02 	sts	0x02F8, r24	; 0x8002f8 <txBufferOutGPS>
    140c:	f0 e0       	ldi	r31, 0x00	; 0
    140e:	ea 55       	subi	r30, 0x5A	; 90
    1410:	f9 4f       	sbci	r31, 0xF9	; 249
    1412:	80 81       	ld	r24, Z
    1414:	80 93 ce 00 	sts	0x00CE, r24	; 0x8000ce <__TEXT_REGION_LENGTH__+0x7c00ce>
		txCntGPS--;
    1418:	80 91 f5 02 	lds	r24, 0x02F5	; 0x8002f5 <txCntGPS>
    141c:	81 50       	subi	r24, 0x01	; 1
    141e:	80 93 f5 02 	sts	0x02F5, r24	; 0x8002f5 <txCntGPS>
		if(txBufferOutGPS >= TX_BUFFER_SIZE_GPS)
    1422:	80 91 f8 02 	lds	r24, 0x02F8	; 0x8002f8 <txBufferOutGPS>
    1426:	88 23       	and	r24, r24
    1428:	14 f4       	brge	.+4      	; 0x142e <__vector_37+0x56>
		txBufferOutGPS = 0;
    142a:	10 92 f8 02 	sts	0x02F8, r1	; 0x8002f8 <txBufferOutGPS>
	}
}
    142e:	ff 91       	pop	r31
    1430:	ef 91       	pop	r30
    1432:	8f 91       	pop	r24
    1434:	0f 90       	pop	r0
    1436:	0b be       	out	0x3b, r0	; 59
    1438:	0f 90       	pop	r0
    143a:	0f be       	out	0x3f, r0	; 63
    143c:	0f 90       	pop	r0
    143e:	1f 90       	pop	r1
    1440:	18 95       	reti

00001442 <__vector_36>:
volatile uint8_t _usartRxTmpGps;
ISR(USART1_RX_vect)//cette interruption est semblable a la derniere mais celle ci gere la reception des donnes du atmega32u4 en mettant les valeurs du rx buffer dans UDR1.
{
    1442:	1f 92       	push	r1
    1444:	0f 92       	push	r0
    1446:	0f b6       	in	r0, 0x3f	; 63
    1448:	0f 92       	push	r0
    144a:	11 24       	eor	r1, r1
    144c:	0b b6       	in	r0, 0x3b	; 59
    144e:	0f 92       	push	r0
    1450:	8f 93       	push	r24
    1452:	9f 93       	push	r25
    1454:	ef 93       	push	r30
    1456:	ff 93       	push	r31
	_usartRxTmpGps = UDR1;
    1458:	80 91 ce 00 	lds	r24, 0x00CE	; 0x8000ce <__TEXT_REGION_LENGTH__+0x7c00ce>
    145c:	80 93 26 07 	sts	0x0726, r24	; 0x800726 <_usartRxTmpGps>
	if(rxCntGPS<RX_BUFFER_SIZE_GPS)
    1460:	80 91 f6 02 	lds	r24, 0x02F6	; 0x8002f6 <rxCntGPS>
    1464:	88 23       	and	r24, r24
    1466:	ac f0       	brlt	.+42     	; 0x1492 <__vector_36+0x50>
	{
		rxBufferGPS[rxBufferInGPS++] = _usartRxTmpGps;//recoit les valeurs en reception et les met dans le regisre UDR1
    1468:	e0 91 f9 02 	lds	r30, 0x02F9	; 0x8002f9 <rxBufferInGPS>
    146c:	91 e0       	ldi	r25, 0x01	; 1
    146e:	9e 0f       	add	r25, r30
    1470:	90 93 f9 02 	sts	0x02F9, r25	; 0x8002f9 <rxBufferInGPS>
    1474:	f0 e0       	ldi	r31, 0x00	; 0
    1476:	90 91 26 07 	lds	r25, 0x0726	; 0x800726 <_usartRxTmpGps>
    147a:	e9 5d       	subi	r30, 0xD9	; 217
    147c:	f8 4f       	sbci	r31, 0xF8	; 248
    147e:	90 83       	st	Z, r25
		rxCntGPS++;
    1480:	8f 5f       	subi	r24, 0xFF	; 255
    1482:	80 93 f6 02 	sts	0x02F6, r24	; 0x8002f6 <rxCntGPS>
		if(rxBufferInGPS >= RX_BUFFER_SIZE_GPS)//Si le buffer de reception est plein le buffer se met a 0
    1486:	80 91 f9 02 	lds	r24, 0x02F9	; 0x8002f9 <rxBufferInGPS>
    148a:	88 23       	and	r24, r24
    148c:	14 f4       	brge	.+4      	; 0x1492 <__vector_36+0x50>
		rxBufferInGPS = 0;
    148e:	10 92 f9 02 	sts	0x02F9, r1	; 0x8002f9 <rxBufferInGPS>
	}
    1492:	ff 91       	pop	r31
    1494:	ef 91       	pop	r30
    1496:	9f 91       	pop	r25
    1498:	8f 91       	pop	r24
    149a:	0f 90       	pop	r0
    149c:	0b be       	out	0x3b, r0	; 59
    149e:	0f 90       	pop	r0
    14a0:	0f be       	out	0x3f, r0	; 63
    14a2:	0f 90       	pop	r0
    14a4:	1f 90       	pop	r1
    14a6:	18 95       	reti

000014a8 <usart2SendByte>:
	return boutonX;
}
uint8_t getBoutonO()
{
	return boutonO;
}
    14a8:	e0 91 1c 03 	lds	r30, 0x031C	; 0x80031c <txBufferInBluetooth>
    14ac:	91 e0       	ldi	r25, 0x01	; 1
    14ae:	9e 0f       	add	r25, r30
    14b0:	90 93 1c 03 	sts	0x031C, r25	; 0x80031c <txBufferInBluetooth>
    14b4:	f0 e0       	ldi	r31, 0x00	; 0
    14b6:	e5 5c       	subi	r30, 0xC5	; 197
    14b8:	f7 4f       	sbci	r31, 0xF7	; 247
    14ba:	80 83       	st	Z, r24
    14bc:	f8 94       	cli
    14be:	80 91 17 03 	lds	r24, 0x0317	; 0x800317 <txCntBluetooth>
    14c2:	8f 5f       	subi	r24, 0xFF	; 255
    14c4:	80 93 17 03 	sts	0x0317, r24	; 0x800317 <txCntBluetooth>
    14c8:	78 94       	sei
    14ca:	80 91 1c 03 	lds	r24, 0x031C	; 0x80031c <txBufferInBluetooth>
    14ce:	e1 ed       	ldi	r30, 0xD1	; 209
    14d0:	f0 e0       	ldi	r31, 0x00	; 0
    14d2:	80 81       	ld	r24, Z
    14d4:	80 62       	ori	r24, 0x20	; 32
    14d6:	80 83       	st	Z, r24
    14d8:	80 e0       	ldi	r24, 0x00	; 0
    14da:	08 95       	ret

000014dc <usart2Init>:
    14dc:	8f 92       	push	r8
    14de:	9f 92       	push	r9
    14e0:	af 92       	push	r10
    14e2:	bf 92       	push	r11
    14e4:	cf 92       	push	r12
    14e6:	df 92       	push	r13
    14e8:	ef 92       	push	r14
    14ea:	ff 92       	push	r15
    14ec:	cf 93       	push	r28
    14ee:	df 93       	push	r29
    14f0:	49 01       	movw	r8, r18
    14f2:	5a 01       	movw	r10, r20
    14f4:	c1 ed       	ldi	r28, 0xD1	; 209
    14f6:	d0 e0       	ldi	r29, 0x00	; 0
    14f8:	28 e1       	ldi	r18, 0x18	; 24
    14fa:	28 83       	st	Y, r18
    14fc:	26 e0       	ldi	r18, 0x06	; 6
    14fe:	20 93 d2 00 	sts	0x00D2, r18	; 0x8000d2 <__TEXT_REGION_LENGTH__+0x7c00d2>
    1502:	87 d5       	rcall	.+2830   	; 0x2012 <__floatunsisf>
    1504:	20 e0       	ldi	r18, 0x00	; 0
    1506:	30 e0       	ldi	r19, 0x00	; 0
    1508:	40 e8       	ldi	r20, 0x80	; 128
    150a:	51 e4       	ldi	r21, 0x41	; 65
    150c:	10 d6       	rcall	.+3104   	; 0x212e <__mulsf3>
    150e:	6b 01       	movw	r12, r22
    1510:	7c 01       	movw	r14, r24
    1512:	c5 01       	movw	r24, r10
    1514:	b4 01       	movw	r22, r8
    1516:	7d d5       	rcall	.+2810   	; 0x2012 <__floatunsisf>
    1518:	a7 01       	movw	r20, r14
    151a:	96 01       	movw	r18, r12
    151c:	e6 d4       	rcall	.+2508   	; 0x1eea <__divsf3>
    151e:	20 e0       	ldi	r18, 0x00	; 0
    1520:	30 e0       	ldi	r19, 0x00	; 0
    1522:	40 e0       	ldi	r20, 0x00	; 0
    1524:	5f e3       	ldi	r21, 0x3F	; 63
    1526:	7c d4       	rcall	.+2296   	; 0x1e20 <__subsf3>
    1528:	48 d5       	rcall	.+2704   	; 0x1fba <__fixunssfsi>
    152a:	70 93 d5 00 	sts	0x00D5, r23	; 0x8000d5 <__TEXT_REGION_LENGTH__+0x7c00d5>
    152e:	60 93 d4 00 	sts	0x00D4, r22	; 0x8000d4 <__TEXT_REGION_LENGTH__+0x7c00d4>
    1532:	88 81       	ld	r24, Y
    1534:	80 68       	ori	r24, 0x80	; 128
    1536:	88 83       	st	Y, r24
    1538:	78 94       	sei
    153a:	df 91       	pop	r29
    153c:	cf 91       	pop	r28
    153e:	ff 90       	pop	r15
    1540:	ef 90       	pop	r14
    1542:	df 90       	pop	r13
    1544:	cf 90       	pop	r12
    1546:	bf 90       	pop	r11
    1548:	af 90       	pop	r10
    154a:	9f 90       	pop	r9
    154c:	8f 90       	pop	r8
    154e:	08 95       	ret

00001550 <usart2RxAvailable>:
    1550:	80 91 18 03 	lds	r24, 0x0318	; 0x800318 <rxCntBluetooth>
    1554:	08 95       	ret

00001556 <usart2RemRxData>:
    1556:	80 91 18 03 	lds	r24, 0x0318	; 0x800318 <rxCntBluetooth>
    155a:	88 23       	and	r24, r24
    155c:	99 f0       	breq	.+38     	; 0x1584 <usart2RemRxData+0x2e>
    155e:	e0 91 19 03 	lds	r30, 0x0319	; 0x800319 <rxBufferOutBluetooth>
    1562:	81 e0       	ldi	r24, 0x01	; 1
    1564:	8e 0f       	add	r24, r30
    1566:	80 93 19 03 	sts	0x0319, r24	; 0x800319 <rxBufferOutBluetooth>
    156a:	f0 e0       	ldi	r31, 0x00	; 0
    156c:	e5 5c       	subi	r30, 0xC5	; 197
    156e:	f6 4f       	sbci	r31, 0xF6	; 246
    1570:	80 81       	ld	r24, Z
    1572:	80 93 16 03 	sts	0x0316, r24	; 0x800316 <rxContentBluetooth>
    1576:	f8 94       	cli
    1578:	80 91 18 03 	lds	r24, 0x0318	; 0x800318 <rxCntBluetooth>
    157c:	81 50       	subi	r24, 0x01	; 1
    157e:	80 93 18 03 	sts	0x0318, r24	; 0x800318 <rxCntBluetooth>
    1582:	78 94       	sei
    1584:	80 91 16 03 	lds	r24, 0x0316	; 0x800316 <rxContentBluetooth>
    1588:	08 95       	ret

0000158a <usart2SendString>:
    158a:	0f 93       	push	r16
    158c:	1f 93       	push	r17
    158e:	cf 93       	push	r28
    1590:	df 93       	push	r29
    1592:	8c 01       	movw	r16, r24
    1594:	c0 e0       	ldi	r28, 0x00	; 0
    1596:	d0 e0       	ldi	r29, 0x00	; 0
    1598:	05 c0       	rjmp	.+10     	; 0x15a4 <usart2SendString+0x1a>
    159a:	86 df       	rcall	.-244    	; 0x14a8 <usart2SendByte>
    159c:	81 11       	cpse	r24, r1
    159e:	01 c0       	rjmp	.+2      	; 0x15a2 <usart2SendString+0x18>
    15a0:	df 5f       	subi	r29, 0xFF	; 255
    15a2:	cf 5f       	subi	r28, 0xFF	; 255
    15a4:	f8 01       	movw	r30, r16
    15a6:	ec 0f       	add	r30, r28
    15a8:	f1 1d       	adc	r31, r1
    15aa:	80 81       	ld	r24, Z
    15ac:	81 11       	cpse	r24, r1
    15ae:	f5 cf       	rjmp	.-22     	; 0x159a <usart2SendString+0x10>
    15b0:	8d 2f       	mov	r24, r29
    15b2:	df 91       	pop	r29
    15b4:	cf 91       	pop	r28
    15b6:	1f 91       	pop	r17
    15b8:	0f 91       	pop	r16
    15ba:	08 95       	ret

000015bc <__vector_52>:
    15bc:	1f 92       	push	r1
    15be:	0f 92       	push	r0
    15c0:	0f b6       	in	r0, 0x3f	; 63
    15c2:	0f 92       	push	r0
    15c4:	11 24       	eor	r1, r1
    15c6:	0b b6       	in	r0, 0x3b	; 59
    15c8:	0f 92       	push	r0
    15ca:	8f 93       	push	r24
    15cc:	ef 93       	push	r30
    15ce:	ff 93       	push	r31
    15d0:	80 91 17 03 	lds	r24, 0x0317	; 0x800317 <txCntBluetooth>
    15d4:	81 11       	cpse	r24, r1
    15d6:	06 c0       	rjmp	.+12     	; 0x15e4 <__vector_52+0x28>
    15d8:	e1 ed       	ldi	r30, 0xD1	; 209
    15da:	f0 e0       	ldi	r31, 0x00	; 0
    15dc:	80 81       	ld	r24, Z
    15de:	8f 7d       	andi	r24, 0xDF	; 223
    15e0:	80 83       	st	Z, r24
    15e2:	11 c0       	rjmp	.+34     	; 0x1606 <__vector_52+0x4a>
    15e4:	e0 91 1a 03 	lds	r30, 0x031A	; 0x80031a <txBufferOutBluetooth>
    15e8:	81 e0       	ldi	r24, 0x01	; 1
    15ea:	8e 0f       	add	r24, r30
    15ec:	80 93 1a 03 	sts	0x031A, r24	; 0x80031a <txBufferOutBluetooth>
    15f0:	f0 e0       	ldi	r31, 0x00	; 0
    15f2:	e5 5c       	subi	r30, 0xC5	; 197
    15f4:	f7 4f       	sbci	r31, 0xF7	; 247
    15f6:	80 81       	ld	r24, Z
    15f8:	80 93 d6 00 	sts	0x00D6, r24	; 0x8000d6 <__TEXT_REGION_LENGTH__+0x7c00d6>
    15fc:	80 91 17 03 	lds	r24, 0x0317	; 0x800317 <txCntBluetooth>
    1600:	81 50       	subi	r24, 0x01	; 1
    1602:	80 93 17 03 	sts	0x0317, r24	; 0x800317 <txCntBluetooth>
    1606:	ff 91       	pop	r31
    1608:	ef 91       	pop	r30
    160a:	8f 91       	pop	r24
    160c:	0f 90       	pop	r0
    160e:	0b be       	out	0x3b, r0	; 59
    1610:	0f 90       	pop	r0
    1612:	0f be       	out	0x3f, r0	; 63
    1614:	0f 90       	pop	r0
    1616:	1f 90       	pop	r1
    1618:	18 95       	reti

0000161a <__vector_51>:
    161a:	1f 92       	push	r1
    161c:	0f 92       	push	r0
    161e:	0f b6       	in	r0, 0x3f	; 63
    1620:	0f 92       	push	r0
    1622:	11 24       	eor	r1, r1
    1624:	0b b6       	in	r0, 0x3b	; 59
    1626:	0f 92       	push	r0
    1628:	8f 93       	push	r24
    162a:	ef 93       	push	r30
    162c:	ff 93       	push	r31
    162e:	80 91 d6 00 	lds	r24, 0x00D6	; 0x8000d6 <__TEXT_REGION_LENGTH__+0x7c00d6>
    1632:	80 93 a7 07 	sts	0x07A7, r24	; 0x8007a7 <_usartRxTmpBluetooth>
    1636:	e0 91 1b 03 	lds	r30, 0x031B	; 0x80031b <rxBufferInBluetooth>
    163a:	81 e0       	ldi	r24, 0x01	; 1
    163c:	8e 0f       	add	r24, r30
    163e:	80 93 1b 03 	sts	0x031B, r24	; 0x80031b <rxBufferInBluetooth>
    1642:	f0 e0       	ldi	r31, 0x00	; 0
    1644:	80 91 a7 07 	lds	r24, 0x07A7	; 0x8007a7 <_usartRxTmpBluetooth>
    1648:	e5 5c       	subi	r30, 0xC5	; 197
    164a:	f6 4f       	sbci	r31, 0xF6	; 246
    164c:	80 83       	st	Z, r24
    164e:	80 91 18 03 	lds	r24, 0x0318	; 0x800318 <rxCntBluetooth>
    1652:	8f 5f       	subi	r24, 0xFF	; 255
    1654:	80 93 18 03 	sts	0x0318, r24	; 0x800318 <rxCntBluetooth>
    1658:	80 91 1b 03 	lds	r24, 0x031B	; 0x80031b <rxBufferInBluetooth>
    165c:	ff 91       	pop	r31
    165e:	ef 91       	pop	r30
    1660:	8f 91       	pop	r24
    1662:	0f 90       	pop	r0
    1664:	0b be       	out	0x3b, r0	; 59
    1666:	0f 90       	pop	r0
    1668:	0f be       	out	0x3f, r0	; 63
    166a:	0f 90       	pop	r0
    166c:	1f 90       	pop	r1
    166e:	18 95       	reti

00001670 <parseBluetoothManuel>:
    1670:	90 91 15 03 	lds	r25, 0x0315	; 0x800315 <etats>
    1674:	91 30       	cpi	r25, 0x01	; 1
    1676:	71 f0       	breq	.+28     	; 0x1694 <parseBluetoothManuel+0x24>
    1678:	18 f0       	brcs	.+6      	; 0x1680 <parseBluetoothManuel+0x10>
    167a:	92 30       	cpi	r25, 0x02	; 2
    167c:	f1 f0       	breq	.+60     	; 0x16ba <parseBluetoothManuel+0x4a>
    167e:	6b c0       	rjmp	.+214    	; 0x1756 <parseBluetoothManuel+0xe6>
    1680:	8c 33       	cpi	r24, 0x3C	; 60
    1682:	09 f0       	breq	.+2      	; 0x1686 <parseBluetoothManuel+0x16>
    1684:	6a c0       	rjmp	.+212    	; 0x175a <parseBluetoothManuel+0xea>
    1686:	10 92 13 03 	sts	0x0313, r1	; 0x800313 <indexBluetooth>
    168a:	81 e0       	ldi	r24, 0x01	; 1
    168c:	80 93 15 03 	sts	0x0315, r24	; 0x800315 <etats>
    1690:	80 e0       	ldi	r24, 0x00	; 0
    1692:	08 95       	ret
    1694:	8e 33       	cpi	r24, 0x3E	; 62
    1696:	29 f4       	brne	.+10     	; 0x16a2 <parseBluetoothManuel+0x32>
    1698:	82 e0       	ldi	r24, 0x02	; 2
    169a:	80 93 15 03 	sts	0x0315, r24	; 0x800315 <etats>
    169e:	80 e0       	ldi	r24, 0x00	; 0
    16a0:	08 95       	ret
    16a2:	e0 91 13 03 	lds	r30, 0x0313	; 0x800313 <indexBluetooth>
    16a6:	91 e0       	ldi	r25, 0x01	; 1
    16a8:	9e 0f       	add	r25, r30
    16aa:	90 93 13 03 	sts	0x0313, r25	; 0x800313 <indexBluetooth>
    16ae:	f0 e0       	ldi	r31, 0x00	; 0
    16b0:	e8 51       	subi	r30, 0x18	; 24
    16b2:	f8 4f       	sbci	r31, 0xF8	; 248
    16b4:	80 83       	st	Z, r24
    16b6:	80 e0       	ldi	r24, 0x00	; 0
    16b8:	08 95       	ret
    16ba:	10 92 04 03 	sts	0x0304, r1	; 0x800304 <status>
    16be:	10 92 03 03 	sts	0x0303, r1	; 0x800303 <z>
    16c2:	85 e0       	ldi	r24, 0x05	; 5
    16c4:	ed e0       	ldi	r30, 0x0D	; 13
    16c6:	f3 e0       	ldi	r31, 0x03	; 3
    16c8:	df 01       	movw	r26, r30
    16ca:	98 2f       	mov	r25, r24
    16cc:	1d 92       	st	X+, r1
    16ce:	9a 95       	dec	r25
    16d0:	e9 f7       	brne	.-6      	; 0x16cc <parseBluetoothManuel+0x5c>
    16d2:	e8 e0       	ldi	r30, 0x08	; 8
    16d4:	f3 e0       	ldi	r31, 0x03	; 3
    16d6:	df 01       	movw	r26, r30
    16d8:	1d 92       	st	X+, r1
    16da:	8a 95       	dec	r24
    16dc:	e9 f7       	brne	.-6      	; 0x16d8 <parseBluetoothManuel+0x68>
    16de:	90 e0       	ldi	r25, 0x00	; 0
    16e0:	32 c0       	rjmp	.+100    	; 0x1746 <parseBluetoothManuel+0xd6>
    16e2:	29 2f       	mov	r18, r25
    16e4:	30 e0       	ldi	r19, 0x00	; 0
    16e6:	f9 01       	movw	r30, r18
    16e8:	e8 51       	subi	r30, 0x18	; 24
    16ea:	f8 4f       	sbci	r31, 0xF8	; 248
    16ec:	80 81       	ld	r24, Z
    16ee:	f9 01       	movw	r30, r18
    16f0:	e8 55       	subi	r30, 0x58	; 88
    16f2:	f8 4f       	sbci	r31, 0xF8	; 248
    16f4:	80 83       	st	Z, r24
    16f6:	40 91 04 03 	lds	r20, 0x0304	; 0x800304 <status>
    16fa:	41 11       	cpse	r20, r1
    16fc:	04 c0       	rjmp	.+8      	; 0x1706 <parseBluetoothManuel+0x96>
    16fe:	f9 01       	movw	r30, r18
    1700:	e3 5f       	subi	r30, 0xF3	; 243
    1702:	fc 4f       	sbci	r31, 0xFC	; 252
    1704:	80 83       	st	Z, r24
    1706:	41 30       	cpi	r20, 0x01	; 1
    1708:	51 f4       	brne	.+20     	; 0x171e <parseBluetoothManuel+0xae>
    170a:	e0 91 03 03 	lds	r30, 0x0303	; 0x800303 <z>
    170e:	21 e0       	ldi	r18, 0x01	; 1
    1710:	2e 0f       	add	r18, r30
    1712:	20 93 03 03 	sts	0x0303, r18	; 0x800303 <z>
    1716:	f0 e0       	ldi	r31, 0x00	; 0
    1718:	e8 5f       	subi	r30, 0xF8	; 248
    171a:	fc 4f       	sbci	r31, 0xFC	; 252
    171c:	80 83       	st	Z, r24
    171e:	8b 33       	cpi	r24, 0x3B	; 59
    1720:	19 f4       	brne	.+6      	; 0x1728 <parseBluetoothManuel+0xb8>
    1722:	4f 5f       	subi	r20, 0xFF	; 255
    1724:	40 93 04 03 	sts	0x0304, r20	; 0x800304 <status>
    1728:	20 91 04 03 	lds	r18, 0x0304	; 0x800304 <status>
    172c:	22 30       	cpi	r18, 0x02	; 2
    172e:	11 f4       	brne	.+4      	; 0x1734 <parseBluetoothManuel+0xc4>
    1730:	80 93 07 03 	sts	0x0307, r24	; 0x800307 <boutonX>
    1734:	23 30       	cpi	r18, 0x03	; 3
    1736:	11 f4       	brne	.+4      	; 0x173c <parseBluetoothManuel+0xcc>
    1738:	80 93 06 03 	sts	0x0306, r24	; 0x800306 <boutonO>
    173c:	24 30       	cpi	r18, 0x04	; 4
    173e:	11 f4       	brne	.+4      	; 0x1744 <parseBluetoothManuel+0xd4>
    1740:	80 93 05 03 	sts	0x0305, r24	; 0x800305 <boutonTriangle>
    1744:	9f 5f       	subi	r25, 0xFF	; 255
    1746:	80 91 13 03 	lds	r24, 0x0313	; 0x800313 <indexBluetooth>
    174a:	98 17       	cp	r25, r24
    174c:	50 f2       	brcs	.-108    	; 0x16e2 <parseBluetoothManuel+0x72>
    174e:	10 92 15 03 	sts	0x0315, r1	; 0x800315 <etats>
    1752:	81 e0       	ldi	r24, 0x01	; 1
    1754:	08 95       	ret
    1756:	80 e0       	ldi	r24, 0x00	; 0
    1758:	08 95       	ret
    175a:	80 e0       	ldi	r24, 0x00	; 0
    175c:	08 95       	ret

0000175e <parseBluetoothAuto>:
    175e:	cf 92       	push	r12
    1760:	df 92       	push	r13
    1762:	ef 92       	push	r14
    1764:	ff 92       	push	r15
    1766:	cf 93       	push	r28
    1768:	df 93       	push	r29
    176a:	90 91 14 03 	lds	r25, 0x0314	; 0x800314 <etatProg>
    176e:	91 30       	cpi	r25, 0x01	; 1
    1770:	71 f0       	breq	.+28     	; 0x178e <parseBluetoothAuto+0x30>
    1772:	18 f0       	brcs	.+6      	; 0x177a <parseBluetoothAuto+0x1c>
    1774:	92 30       	cpi	r25, 0x02	; 2
    1776:	51 f1       	breq	.+84     	; 0x17cc <parseBluetoothAuto+0x6e>
    1778:	80 c0       	rjmp	.+256    	; 0x187a <parseBluetoothAuto+0x11c>
    177a:	8c 33       	cpi	r24, 0x3C	; 60
    177c:	09 f0       	breq	.+2      	; 0x1780 <parseBluetoothAuto+0x22>
    177e:	7f c0       	rjmp	.+254    	; 0x187e <parseBluetoothAuto+0x120>
    1780:	10 92 12 03 	sts	0x0312, r1	; 0x800312 <indexBluetoothProg>
    1784:	81 e0       	ldi	r24, 0x01	; 1
    1786:	80 93 14 03 	sts	0x0314, r24	; 0x800314 <etatProg>
    178a:	80 e0       	ldi	r24, 0x00	; 0
    178c:	79 c0       	rjmp	.+242    	; 0x1880 <parseBluetoothAuto+0x122>
    178e:	8e 33       	cpi	r24, 0x3E	; 62
    1790:	29 f4       	brne	.+10     	; 0x179c <parseBluetoothAuto+0x3e>
    1792:	82 e0       	ldi	r24, 0x02	; 2
    1794:	80 93 14 03 	sts	0x0314, r24	; 0x800314 <etatProg>
    1798:	80 e0       	ldi	r24, 0x00	; 0
    179a:	72 c0       	rjmp	.+228    	; 0x1880 <parseBluetoothAuto+0x122>
    179c:	e0 91 12 03 	lds	r30, 0x0312	; 0x800312 <indexBluetoothProg>
    17a0:	91 e0       	ldi	r25, 0x01	; 1
    17a2:	9e 0f       	add	r25, r30
    17a4:	90 93 12 03 	sts	0x0312, r25	; 0x800312 <indexBluetoothProg>
    17a8:	f0 e0       	ldi	r31, 0x00	; 0
    17aa:	e8 51       	subi	r30, 0x18	; 24
    17ac:	f8 4f       	sbci	r31, 0xF8	; 248
    17ae:	80 83       	st	Z, r24
    17b0:	80 e0       	ldi	r24, 0x00	; 0
    17b2:	66 c0       	rjmp	.+204    	; 0x1880 <parseBluetoothAuto+0x122>
    17b4:	82 2f       	mov	r24, r18
    17b6:	90 e0       	ldi	r25, 0x00	; 0
    17b8:	fc 01       	movw	r30, r24
    17ba:	e8 51       	subi	r30, 0x18	; 24
    17bc:	f8 4f       	sbci	r31, 0xF8	; 248
    17be:	30 81       	ld	r19, Z
    17c0:	fc 01       	movw	r30, r24
    17c2:	e8 55       	subi	r30, 0x58	; 88
    17c4:	f8 4f       	sbci	r31, 0xF8	; 248
    17c6:	30 83       	st	Z, r19
    17c8:	2f 5f       	subi	r18, 0xFF	; 255
    17ca:	01 c0       	rjmp	.+2      	; 0x17ce <parseBluetoothAuto+0x70>
    17cc:	20 e0       	ldi	r18, 0x00	; 0
    17ce:	80 91 12 03 	lds	r24, 0x0312	; 0x800312 <indexBluetoothProg>
    17d2:	28 17       	cp	r18, r24
    17d4:	78 f3       	brcs	.-34     	; 0x17b4 <parseBluetoothAuto+0x56>
    17d6:	c8 ea       	ldi	r28, 0xA8	; 168
    17d8:	d7 e0       	ldi	r29, 0x07	; 7
    17da:	8a 81       	ldd	r24, Y+2	; 0x02
    17dc:	e8 e2       	ldi	r30, 0x28	; 40
    17de:	f8 e0       	ldi	r31, 0x08	; 8
    17e0:	80 83       	st	Z, r24
    17e2:	8b 81       	ldd	r24, Y+3	; 0x03
    17e4:	81 83       	std	Z+1, r24	; 0x01
    17e6:	8c 81       	ldd	r24, Y+4	; 0x04
    17e8:	82 83       	std	Z+2, r24	; 0x02
    17ea:	8d 81       	ldd	r24, Y+5	; 0x05
    17ec:	83 83       	std	Z+3, r24	; 0x03
    17ee:	8e 81       	ldd	r24, Y+6	; 0x06
    17f0:	84 83       	std	Z+4, r24	; 0x04
    17f2:	8f 81       	ldd	r24, Y+7	; 0x07
    17f4:	85 83       	std	Z+5, r24	; 0x05
    17f6:	88 85       	ldd	r24, Y+8	; 0x08
    17f8:	86 83       	std	Z+6, r24	; 0x06
    17fa:	89 85       	ldd	r24, Y+9	; 0x09
    17fc:	87 83       	std	Z+7, r24	; 0x07
    17fe:	10 86       	std	Z+8, r1	; 0x08
    1800:	cf 01       	movw	r24, r30
    1802:	0e 94 cf 14 	call	0x299e	; 0x299e <atol>
    1806:	6b 01       	movw	r12, r22
    1808:	7c 01       	movw	r14, r24
    180a:	60 93 ff 02 	sts	0x02FF, r22	; 0x8002ff <latitudeRx>
    180e:	70 93 00 03 	sts	0x0300, r23	; 0x800300 <latitudeRx+0x1>
    1812:	80 93 01 03 	sts	0x0301, r24	; 0x800301 <latitudeRx+0x2>
    1816:	90 93 02 03 	sts	0x0302, r25	; 0x800302 <latitudeRx+0x3>
    181a:	8b 85       	ldd	r24, Y+11	; 0x0b
    181c:	e1 e3       	ldi	r30, 0x31	; 49
    181e:	f8 e0       	ldi	r31, 0x08	; 8
    1820:	80 83       	st	Z, r24
    1822:	8c 85       	ldd	r24, Y+12	; 0x0c
    1824:	81 83       	std	Z+1, r24	; 0x01
    1826:	8d 85       	ldd	r24, Y+13	; 0x0d
    1828:	82 83       	std	Z+2, r24	; 0x02
    182a:	8e 85       	ldd	r24, Y+14	; 0x0e
    182c:	83 83       	std	Z+3, r24	; 0x03
    182e:	8f 85       	ldd	r24, Y+15	; 0x0f
    1830:	84 83       	std	Z+4, r24	; 0x04
    1832:	88 89       	ldd	r24, Y+16	; 0x10
    1834:	85 83       	std	Z+5, r24	; 0x05
    1836:	89 89       	ldd	r24, Y+17	; 0x11
    1838:	86 83       	std	Z+6, r24	; 0x06
    183a:	8a 89       	ldd	r24, Y+18	; 0x12
    183c:	87 83       	std	Z+7, r24	; 0x07
    183e:	8b 89       	ldd	r24, Y+19	; 0x13
    1840:	80 87       	std	Z+8, r24	; 0x08
    1842:	11 86       	std	Z+9, r1	; 0x09
    1844:	cf 01       	movw	r24, r30
    1846:	0e 94 cf 14 	call	0x299e	; 0x299e <atol>
    184a:	60 93 fb 02 	sts	0x02FB, r22	; 0x8002fb <longitudeRx>
    184e:	70 93 fc 02 	sts	0x02FC, r23	; 0x8002fc <longitudeRx+0x1>
    1852:	80 93 fd 02 	sts	0x02FD, r24	; 0x8002fd <longitudeRx+0x2>
    1856:	90 93 fe 02 	sts	0x02FE, r25	; 0x8002fe <longitudeRx+0x3>
    185a:	67 2b       	or	r22, r23
    185c:	68 2b       	or	r22, r24
    185e:	69 2b       	or	r22, r25
    1860:	31 f0       	breq	.+12     	; 0x186e <parseBluetoothAuto+0x110>
    1862:	cd 28       	or	r12, r13
    1864:	ce 28       	or	r12, r14
    1866:	cf 28       	or	r12, r15
    1868:	21 f4       	brne	.+8      	; 0x1872 <parseBluetoothAuto+0x114>
    186a:	80 e0       	ldi	r24, 0x00	; 0
    186c:	03 c0       	rjmp	.+6      	; 0x1874 <parseBluetoothAuto+0x116>
    186e:	80 e0       	ldi	r24, 0x00	; 0
    1870:	01 c0       	rjmp	.+2      	; 0x1874 <parseBluetoothAuto+0x116>
    1872:	81 e0       	ldi	r24, 0x01	; 1
    1874:	10 92 14 03 	sts	0x0314, r1	; 0x800314 <etatProg>
    1878:	03 c0       	rjmp	.+6      	; 0x1880 <parseBluetoothAuto+0x122>
    187a:	80 e0       	ldi	r24, 0x00	; 0
    187c:	01 c0       	rjmp	.+2      	; 0x1880 <parseBluetoothAuto+0x122>
    187e:	80 e0       	ldi	r24, 0x00	; 0
    1880:	df 91       	pop	r29
    1882:	cf 91       	pop	r28
    1884:	ff 90       	pop	r15
    1886:	ef 90       	pop	r14
    1888:	df 90       	pop	r13
    188a:	cf 90       	pop	r12
    188c:	08 95       	ret

0000188e <getJoystickGaucheX>:
    188e:	8d e0       	ldi	r24, 0x0D	; 13
    1890:	93 e0       	ldi	r25, 0x03	; 3
    1892:	0c 94 b2 14 	jmp	0x2964	; 0x2964 <atoi>
    1896:	08 95       	ret

00001898 <getJoystickGaucheY>:
    1898:	88 e0       	ldi	r24, 0x08	; 8
    189a:	93 e0       	ldi	r25, 0x03	; 3
    189c:	0c 94 b2 14 	jmp	0x2964	; 0x2964 <atoi>
    18a0:	08 95       	ret

000018a2 <getBoutonX>:
    18a2:	80 91 07 03 	lds	r24, 0x0307	; 0x800307 <boutonX>
    18a6:	08 95       	ret

000018a8 <getLon>:
long getLon()
{
	return longitudeRx;
    18a8:	60 91 fb 02 	lds	r22, 0x02FB	; 0x8002fb <longitudeRx>
    18ac:	70 91 fc 02 	lds	r23, 0x02FC	; 0x8002fc <longitudeRx+0x1>
    18b0:	80 91 fd 02 	lds	r24, 0x02FD	; 0x8002fd <longitudeRx+0x2>
    18b4:	90 91 fe 02 	lds	r25, 0x02FE	; 0x8002fe <longitudeRx+0x3>
}
    18b8:	08 95       	ret

000018ba <getLat>:
long getLat()
{
	return latitudeRx;
    18ba:	60 91 ff 02 	lds	r22, 0x02FF	; 0x8002ff <latitudeRx>
    18be:	70 91 00 03 	lds	r23, 0x0300	; 0x800300 <latitudeRx+0x1>
    18c2:	80 91 01 03 	lds	r24, 0x0301	; 0x800301 <latitudeRx+0x2>
    18c6:	90 91 02 03 	lds	r25, 0x0302	; 0x800302 <latitudeRx+0x3>
    18ca:	08 95       	ret

000018cc <parseRxUbxNavPvt>:
}

uint8_t getAckConfigOdo()
{
	return ackConfigOdo;
}
    18cc:	28 2f       	mov	r18, r24
    18ce:	80 91 27 03 	lds	r24, 0x0327	; 0x800327 <state>
    18d2:	90 e0       	ldi	r25, 0x00	; 0
    18d4:	88 30       	cpi	r24, 0x08	; 8
    18d6:	91 05       	cpc	r25, r1
    18d8:	08 f0       	brcs	.+2      	; 0x18dc <parseRxUbxNavPvt+0x10>
    18da:	57 c1       	rjmp	.+686    	; 0x1b8a <parseRxUbxNavPvt+0x2be>
    18dc:	fc 01       	movw	r30, r24
    18de:	88 27       	eor	r24, r24
    18e0:	ee 58       	subi	r30, 0x8E	; 142
    18e2:	ff 4f       	sbci	r31, 0xFF	; 255
    18e4:	8f 4f       	sbci	r24, 0xFF	; 255
    18e6:	0c 94 96 14 	jmp	0x292c	; 0x292c <__tablejump2__>
    18ea:	25 3b       	cpi	r18, 0xB5	; 181
    18ec:	09 f0       	breq	.+2      	; 0x18f0 <parseRxUbxNavPvt+0x24>
    18ee:	4d c1       	rjmp	.+666    	; 0x1b8a <parseRxUbxNavPvt+0x2be>
    18f0:	10 92 20 03 	sts	0x0320, r1	; 0x800320 <checksumA>
    18f4:	10 92 1f 03 	sts	0x031F, r1	; 0x80031f <checksumB>
    18f8:	10 92 21 03 	sts	0x0321, r1	; 0x800321 <indexPayload>
    18fc:	10 92 1e 03 	sts	0x031E, r1	; 0x80031e <retour2>
    1900:	81 e0       	ldi	r24, 0x01	; 1
    1902:	80 93 22 03 	sts	0x0322, r24	; 0x800322 <indexTrame>
    1906:	20 93 7b 0a 	sts	0x0A7B, r18	; 0x800a7b <trameGpsRx>
    190a:	80 93 27 03 	sts	0x0327, r24	; 0x800327 <state>
    190e:	3d c1       	rjmp	.+634    	; 0x1b8a <parseRxUbxNavPvt+0x2be>
    1910:	22 36       	cpi	r18, 0x62	; 98
    1912:	71 f4       	brne	.+28     	; 0x1930 <parseRxUbxNavPvt+0x64>
    1914:	e0 91 22 03 	lds	r30, 0x0322	; 0x800322 <indexTrame>
    1918:	81 e0       	ldi	r24, 0x01	; 1
    191a:	8e 0f       	add	r24, r30
    191c:	80 93 22 03 	sts	0x0322, r24	; 0x800322 <indexTrame>
    1920:	f0 e0       	ldi	r31, 0x00	; 0
    1922:	e5 58       	subi	r30, 0x85	; 133
    1924:	f5 4f       	sbci	r31, 0xF5	; 245
    1926:	20 83       	st	Z, r18
    1928:	82 e0       	ldi	r24, 0x02	; 2
    192a:	80 93 27 03 	sts	0x0327, r24	; 0x800327 <state>
    192e:	2d c1       	rjmp	.+602    	; 0x1b8a <parseRxUbxNavPvt+0x2be>
    1930:	10 92 27 03 	sts	0x0327, r1	; 0x800327 <state>
    1934:	2a c1       	rjmp	.+596    	; 0x1b8a <parseRxUbxNavPvt+0x2be>
    1936:	21 30       	cpi	r18, 0x01	; 1
    1938:	71 f4       	brne	.+28     	; 0x1956 <parseRxUbxNavPvt+0x8a>
    193a:	e0 91 22 03 	lds	r30, 0x0322	; 0x800322 <indexTrame>
    193e:	81 e0       	ldi	r24, 0x01	; 1
    1940:	8e 0f       	add	r24, r30
    1942:	80 93 22 03 	sts	0x0322, r24	; 0x800322 <indexTrame>
    1946:	f0 e0       	ldi	r31, 0x00	; 0
    1948:	e5 58       	subi	r30, 0x85	; 133
    194a:	f5 4f       	sbci	r31, 0xF5	; 245
    194c:	20 83       	st	Z, r18
    194e:	83 e0       	ldi	r24, 0x03	; 3
    1950:	80 93 27 03 	sts	0x0327, r24	; 0x800327 <state>
    1954:	1a c1       	rjmp	.+564    	; 0x1b8a <parseRxUbxNavPvt+0x2be>
    1956:	25 30       	cpi	r18, 0x05	; 5
    1958:	89 f4       	brne	.+34     	; 0x197c <parseRxUbxNavPvt+0xb0>
    195a:	e0 91 22 03 	lds	r30, 0x0322	; 0x800322 <indexTrame>
    195e:	81 e0       	ldi	r24, 0x01	; 1
    1960:	8e 0f       	add	r24, r30
    1962:	80 93 22 03 	sts	0x0322, r24	; 0x800322 <indexTrame>
    1966:	f0 e0       	ldi	r31, 0x00	; 0
    1968:	e5 58       	subi	r30, 0x85	; 133
    196a:	f5 4f       	sbci	r31, 0xF5	; 245
    196c:	20 83       	st	Z, r18
    196e:	82 e0       	ldi	r24, 0x02	; 2
    1970:	80 93 14 02 	sts	0x0214, r24	; 0x800214 <id>
    1974:	83 e0       	ldi	r24, 0x03	; 3
    1976:	80 93 27 03 	sts	0x0327, r24	; 0x800327 <state>
    197a:	07 c1       	rjmp	.+526    	; 0x1b8a <parseRxUbxNavPvt+0x2be>
    197c:	10 92 27 03 	sts	0x0327, r1	; 0x800327 <state>
    1980:	04 c1       	rjmp	.+520    	; 0x1b8a <parseRxUbxNavPvt+0x2be>
    1982:	27 30       	cpi	r18, 0x07	; 7
    1984:	81 f4       	brne	.+32     	; 0x19a6 <parseRxUbxNavPvt+0xda>
    1986:	e0 91 22 03 	lds	r30, 0x0322	; 0x800322 <indexTrame>
    198a:	81 e0       	ldi	r24, 0x01	; 1
    198c:	8e 0f       	add	r24, r30
    198e:	80 93 22 03 	sts	0x0322, r24	; 0x800322 <indexTrame>
    1992:	f0 e0       	ldi	r31, 0x00	; 0
    1994:	e5 58       	subi	r30, 0x85	; 133
    1996:	f5 4f       	sbci	r31, 0xF5	; 245
    1998:	20 83       	st	Z, r18
    199a:	10 92 14 02 	sts	0x0214, r1	; 0x800214 <id>
    199e:	84 e0       	ldi	r24, 0x04	; 4
    19a0:	80 93 27 03 	sts	0x0327, r24	; 0x800327 <state>
    19a4:	f2 c0       	rjmp	.+484    	; 0x1b8a <parseRxUbxNavPvt+0x2be>
    19a6:	22 30       	cpi	r18, 0x02	; 2
    19a8:	89 f4       	brne	.+34     	; 0x19cc <parseRxUbxNavPvt+0x100>
    19aa:	e0 91 22 03 	lds	r30, 0x0322	; 0x800322 <indexTrame>
    19ae:	81 e0       	ldi	r24, 0x01	; 1
    19b0:	8e 0f       	add	r24, r30
    19b2:	80 93 22 03 	sts	0x0322, r24	; 0x800322 <indexTrame>
    19b6:	f0 e0       	ldi	r31, 0x00	; 0
    19b8:	e5 58       	subi	r30, 0x85	; 133
    19ba:	f5 4f       	sbci	r31, 0xF5	; 245
    19bc:	20 83       	st	Z, r18
    19be:	81 e0       	ldi	r24, 0x01	; 1
    19c0:	80 93 14 02 	sts	0x0214, r24	; 0x800214 <id>
    19c4:	84 e0       	ldi	r24, 0x04	; 4
    19c6:	80 93 27 03 	sts	0x0327, r24	; 0x800327 <state>
    19ca:	df c0       	rjmp	.+446    	; 0x1b8a <parseRxUbxNavPvt+0x2be>
    19cc:	21 30       	cpi	r18, 0x01	; 1
    19ce:	71 f4       	brne	.+28     	; 0x19ec <parseRxUbxNavPvt+0x120>
    19d0:	e0 91 22 03 	lds	r30, 0x0322	; 0x800322 <indexTrame>
    19d4:	81 e0       	ldi	r24, 0x01	; 1
    19d6:	8e 0f       	add	r24, r30
    19d8:	80 93 22 03 	sts	0x0322, r24	; 0x800322 <indexTrame>
    19dc:	f0 e0       	ldi	r31, 0x00	; 0
    19de:	e5 58       	subi	r30, 0x85	; 133
    19e0:	f5 4f       	sbci	r31, 0xF5	; 245
    19e2:	20 83       	st	Z, r18
    19e4:	84 e0       	ldi	r24, 0x04	; 4
    19e6:	80 93 27 03 	sts	0x0327, r24	; 0x800327 <state>
    19ea:	cf c0       	rjmp	.+414    	; 0x1b8a <parseRxUbxNavPvt+0x2be>
    19ec:	83 e0       	ldi	r24, 0x03	; 3
    19ee:	80 93 14 02 	sts	0x0214, r24	; 0x800214 <id>
    19f2:	10 92 27 03 	sts	0x0327, r1	; 0x800327 <state>
    19f6:	c9 c0       	rjmp	.+402    	; 0x1b8a <parseRxUbxNavPvt+0x2be>
    19f8:	e0 91 22 03 	lds	r30, 0x0322	; 0x800322 <indexTrame>
    19fc:	81 e0       	ldi	r24, 0x01	; 1
    19fe:	8e 0f       	add	r24, r30
    1a00:	80 93 22 03 	sts	0x0322, r24	; 0x800322 <indexTrame>
    1a04:	f0 e0       	ldi	r31, 0x00	; 0
    1a06:	e5 58       	subi	r30, 0x85	; 133
    1a08:	f5 4f       	sbci	r31, 0xF5	; 245
    1a0a:	20 83       	st	Z, r18
    1a0c:	2a 5f       	subi	r18, 0xFA	; 250
    1a0e:	20 93 1d 03 	sts	0x031D, r18	; 0x80031d <length>
    1a12:	85 e0       	ldi	r24, 0x05	; 5
    1a14:	80 93 27 03 	sts	0x0327, r24	; 0x800327 <state>
    1a18:	b8 c0       	rjmp	.+368    	; 0x1b8a <parseRxUbxNavPvt+0x2be>
    1a1a:	21 11       	cpse	r18, r1
    1a1c:	0e c0       	rjmp	.+28     	; 0x1a3a <parseRxUbxNavPvt+0x16e>
    1a1e:	e0 91 22 03 	lds	r30, 0x0322	; 0x800322 <indexTrame>
    1a22:	81 e0       	ldi	r24, 0x01	; 1
    1a24:	8e 0f       	add	r24, r30
    1a26:	80 93 22 03 	sts	0x0322, r24	; 0x800322 <indexTrame>
    1a2a:	f0 e0       	ldi	r31, 0x00	; 0
    1a2c:	e5 58       	subi	r30, 0x85	; 133
    1a2e:	f5 4f       	sbci	r31, 0xF5	; 245
    1a30:	20 83       	st	Z, r18
    1a32:	86 e0       	ldi	r24, 0x06	; 6
    1a34:	80 93 27 03 	sts	0x0327, r24	; 0x800327 <state>
    1a38:	a8 c0       	rjmp	.+336    	; 0x1b8a <parseRxUbxNavPvt+0x2be>
    1a3a:	10 92 27 03 	sts	0x0327, r1	; 0x800327 <state>
    1a3e:	a5 c0       	rjmp	.+330    	; 0x1b8a <parseRxUbxNavPvt+0x2be>
    1a40:	80 91 21 03 	lds	r24, 0x0321	; 0x800321 <indexPayload>
    1a44:	84 36       	cpi	r24, 0x64	; 100
    1a46:	58 f4       	brcc	.+22     	; 0x1a5e <parseRxUbxNavPvt+0x192>
    1a48:	e0 91 22 03 	lds	r30, 0x0322	; 0x800322 <indexTrame>
    1a4c:	81 e0       	ldi	r24, 0x01	; 1
    1a4e:	8e 0f       	add	r24, r30
    1a50:	80 93 22 03 	sts	0x0322, r24	; 0x800322 <indexTrame>
    1a54:	f0 e0       	ldi	r31, 0x00	; 0
    1a56:	e5 58       	subi	r30, 0x85	; 133
    1a58:	f5 4f       	sbci	r31, 0xF5	; 245
    1a5a:	20 83       	st	Z, r18
    1a5c:	03 c0       	rjmp	.+6      	; 0x1a64 <parseRxUbxNavPvt+0x198>
    1a5e:	87 e0       	ldi	r24, 0x07	; 7
    1a60:	80 93 27 03 	sts	0x0327, r24	; 0x800327 <state>
    1a64:	80 91 21 03 	lds	r24, 0x0321	; 0x800321 <indexPayload>
    1a68:	8f 5f       	subi	r24, 0xFF	; 255
    1a6a:	80 93 21 03 	sts	0x0321, r24	; 0x800321 <indexPayload>
    1a6e:	8d c0       	rjmp	.+282    	; 0x1b8a <parseRxUbxNavPvt+0x2be>
    1a70:	e9 2f       	mov	r30, r25
    1a72:	f0 e0       	ldi	r31, 0x00	; 0
    1a74:	e5 58       	subi	r30, 0x85	; 133
    1a76:	f5 4f       	sbci	r31, 0xF5	; 245
    1a78:	20 81       	ld	r18, Z
    1a7a:	80 91 20 03 	lds	r24, 0x0320	; 0x800320 <checksumA>
    1a7e:	82 0f       	add	r24, r18
    1a80:	80 93 20 03 	sts	0x0320, r24	; 0x800320 <checksumA>
    1a84:	20 91 1f 03 	lds	r18, 0x031F	; 0x80031f <checksumB>
    1a88:	82 0f       	add	r24, r18
    1a8a:	80 93 1f 03 	sts	0x031F, r24	; 0x80031f <checksumB>
    1a8e:	9f 5f       	subi	r25, 0xFF	; 255
    1a90:	01 c0       	rjmp	.+2      	; 0x1a94 <parseRxUbxNavPvt+0x1c8>
    1a92:	92 e0       	ldi	r25, 0x02	; 2
    1a94:	80 91 1d 03 	lds	r24, 0x031D	; 0x80031d <length>
    1a98:	98 17       	cp	r25, r24
    1a9a:	50 f3       	brcs	.-44     	; 0x1a70 <parseRxUbxNavPvt+0x1a4>
    1a9c:	90 e0       	ldi	r25, 0x00	; 0
    1a9e:	fc 01       	movw	r30, r24
    1aa0:	e5 58       	subi	r30, 0x85	; 133
    1aa2:	f5 4f       	sbci	r31, 0xF5	; 245
    1aa4:	30 81       	ld	r19, Z
    1aa6:	20 91 20 03 	lds	r18, 0x0320	; 0x800320 <checksumA>
    1aaa:	32 13       	cpse	r19, r18
    1aac:	63 c0       	rjmp	.+198    	; 0x1b74 <parseRxUbxNavPvt+0x2a8>
    1aae:	fc 01       	movw	r30, r24
    1ab0:	e4 58       	subi	r30, 0x84	; 132
    1ab2:	f5 4f       	sbci	r31, 0xF5	; 245
    1ab4:	90 81       	ld	r25, Z
    1ab6:	80 91 1f 03 	lds	r24, 0x031F	; 0x80031f <checksumB>
    1aba:	98 13       	cpse	r25, r24
    1abc:	5b c0       	rjmp	.+182    	; 0x1b74 <parseRxUbxNavPvt+0x2a8>
    1abe:	81 e0       	ldi	r24, 0x01	; 1
    1ac0:	80 93 1e 03 	sts	0x031E, r24	; 0x80031e <retour2>
    1ac4:	80 91 14 02 	lds	r24, 0x0214	; 0x800214 <id>
    1ac8:	81 30       	cpi	r24, 0x01	; 1
    1aca:	b9 f0       	breq	.+46     	; 0x1afa <parseRxUbxNavPvt+0x22e>
    1acc:	18 f0       	brcs	.+6      	; 0x1ad4 <parseRxUbxNavPvt+0x208>
    1ace:	82 30       	cpi	r24, 0x02	; 2
    1ad0:	39 f1       	breq	.+78     	; 0x1b20 <parseRxUbxNavPvt+0x254>
    1ad2:	52 c0       	rjmp	.+164    	; 0x1b78 <parseRxUbxNavPvt+0x2ac>
    1ad4:	87 e0       	ldi	r24, 0x07	; 7
    1ad6:	80 93 43 0b 	sts	0x0B43, r24	; 0x800b43 <trame>
    1ada:	20 e0       	ldi	r18, 0x00	; 0
    1adc:	0b c0       	rjmp	.+22     	; 0x1af4 <parseRxUbxNavPvt+0x228>
    1ade:	82 2f       	mov	r24, r18
    1ae0:	90 e0       	ldi	r25, 0x00	; 0
    1ae2:	fc 01       	movw	r30, r24
    1ae4:	e5 58       	subi	r30, 0x85	; 133
    1ae6:	f5 4f       	sbci	r31, 0xF5	; 245
    1ae8:	30 81       	ld	r19, Z
    1aea:	fc 01       	movw	r30, r24
    1aec:	e1 52       	subi	r30, 0x21	; 33
    1aee:	f5 4f       	sbci	r31, 0xF5	; 245
    1af0:	30 83       	st	Z, r19
    1af2:	2f 5f       	subi	r18, 0xFF	; 255
    1af4:	24 36       	cpi	r18, 0x64	; 100
    1af6:	98 f3       	brcs	.-26     	; 0x1ade <parseRxUbxNavPvt+0x212>
    1af8:	3f c0       	rjmp	.+126    	; 0x1b78 <parseRxUbxNavPvt+0x2ac>
    1afa:	82 e0       	ldi	r24, 0x02	; 2
    1afc:	80 93 43 0b 	sts	0x0B43, r24	; 0x800b43 <trame>
    1b00:	20 e0       	ldi	r18, 0x00	; 0
    1b02:	0b c0       	rjmp	.+22     	; 0x1b1a <parseRxUbxNavPvt+0x24e>
    1b04:	82 2f       	mov	r24, r18
    1b06:	90 e0       	ldi	r25, 0x00	; 0
    1b08:	fc 01       	movw	r30, r24
    1b0a:	e5 58       	subi	r30, 0x85	; 133
    1b0c:	f5 4f       	sbci	r31, 0xF5	; 245
    1b0e:	30 81       	ld	r19, Z
    1b10:	fc 01       	movw	r30, r24
    1b12:	e9 5a       	subi	r30, 0xA9	; 169
    1b14:	f5 4f       	sbci	r31, 0xF5	; 245
    1b16:	30 83       	st	Z, r19
    1b18:	2f 5f       	subi	r18, 0xFF	; 255
    1b1a:	24 32       	cpi	r18, 0x24	; 36
    1b1c:	98 f3       	brcs	.-26     	; 0x1b04 <parseRxUbxNavPvt+0x238>
    1b1e:	2c c0       	rjmp	.+88     	; 0x1b78 <parseRxUbxNavPvt+0x2ac>
    1b20:	80 91 81 0a 	lds	r24, 0x0A81	; 0x800a81 <trameGpsRx+0x6>
    1b24:	86 30       	cpi	r24, 0x06	; 6
    1b26:	41 f4       	brne	.+16     	; 0x1b38 <parseRxUbxNavPvt+0x26c>
    1b28:	90 91 82 0a 	lds	r25, 0x0A82	; 0x800a82 <trameGpsRx+0x7>
    1b2c:	91 11       	cpse	r25, r1
    1b2e:	04 c0       	rjmp	.+8      	; 0x1b38 <parseRxUbxNavPvt+0x26c>
    1b30:	81 e0       	ldi	r24, 0x01	; 1
    1b32:	80 93 26 03 	sts	0x0326, r24	; 0x800326 <ackConfigUart1>
    1b36:	20 c0       	rjmp	.+64     	; 0x1b78 <parseRxUbxNavPvt+0x2ac>
    1b38:	86 30       	cpi	r24, 0x06	; 6
    1b3a:	41 f4       	brne	.+16     	; 0x1b4c <parseRxUbxNavPvt+0x280>
    1b3c:	90 91 82 0a 	lds	r25, 0x0A82	; 0x800a82 <trameGpsRx+0x7>
    1b40:	98 30       	cpi	r25, 0x08	; 8
    1b42:	21 f4       	brne	.+8      	; 0x1b4c <parseRxUbxNavPvt+0x280>
    1b44:	81 e0       	ldi	r24, 0x01	; 1
    1b46:	80 93 25 03 	sts	0x0325, r24	; 0x800325 <ackConfigRate>
    1b4a:	16 c0       	rjmp	.+44     	; 0x1b78 <parseRxUbxNavPvt+0x2ac>
    1b4c:	86 30       	cpi	r24, 0x06	; 6
    1b4e:	41 f4       	brne	.+16     	; 0x1b60 <parseRxUbxNavPvt+0x294>
    1b50:	90 91 82 0a 	lds	r25, 0x0A82	; 0x800a82 <trameGpsRx+0x7>
    1b54:	91 30       	cpi	r25, 0x01	; 1
    1b56:	21 f4       	brne	.+8      	; 0x1b60 <parseRxUbxNavPvt+0x294>
    1b58:	81 e0       	ldi	r24, 0x01	; 1
    1b5a:	80 93 24 03 	sts	0x0324, r24	; 0x800324 <ackConfigMsg>
    1b5e:	0c c0       	rjmp	.+24     	; 0x1b78 <parseRxUbxNavPvt+0x2ac>
    1b60:	86 30       	cpi	r24, 0x06	; 6
    1b62:	51 f4       	brne	.+20     	; 0x1b78 <parseRxUbxNavPvt+0x2ac>
    1b64:	80 91 82 0a 	lds	r24, 0x0A82	; 0x800a82 <trameGpsRx+0x7>
    1b68:	8e 31       	cpi	r24, 0x1E	; 30
    1b6a:	31 f4       	brne	.+12     	; 0x1b78 <parseRxUbxNavPvt+0x2ac>
    1b6c:	81 e0       	ldi	r24, 0x01	; 1
    1b6e:	80 93 23 03 	sts	0x0323, r24	; 0x800323 <ackConfigOdo>
    1b72:	02 c0       	rjmp	.+4      	; 0x1b78 <parseRxUbxNavPvt+0x2ac>
    1b74:	10 92 1e 03 	sts	0x031E, r1	; 0x80031e <retour2>
    1b78:	84 e6       	ldi	r24, 0x64	; 100
    1b7a:	eb e7       	ldi	r30, 0x7B	; 123
    1b7c:	fa e0       	ldi	r31, 0x0A	; 10
    1b7e:	df 01       	movw	r26, r30
    1b80:	1d 92       	st	X+, r1
    1b82:	8a 95       	dec	r24
    1b84:	e9 f7       	brne	.-6      	; 0x1b80 <parseRxUbxNavPvt+0x2b4>
    1b86:	10 92 27 03 	sts	0x0327, r1	; 0x800327 <state>
    1b8a:	80 91 1e 03 	lds	r24, 0x031E	; 0x80031e <retour2>
    1b8e:	08 95       	ret

00001b90 <getNavPvtLat>:
    1b90:	ef ed       	ldi	r30, 0xDF	; 223
    1b92:	fa e0       	ldi	r31, 0x0A	; 10
    1b94:	62 a1       	ldd	r22, Z+34	; 0x22
    1b96:	73 a1       	ldd	r23, Z+35	; 0x23
    1b98:	84 a1       	ldd	r24, Z+36	; 0x24
    1b9a:	95 a1       	ldd	r25, Z+37	; 0x25
    1b9c:	3c d2       	rcall	.+1144   	; 0x2016 <__floatsisf>
    1b9e:	25 e9       	ldi	r18, 0x95	; 149
    1ba0:	3f eb       	ldi	r19, 0xBF	; 191
    1ba2:	46 ed       	ldi	r20, 0xD6	; 214
    1ba4:	53 e3       	ldi	r21, 0x33	; 51
    1ba6:	c3 c2       	rjmp	.+1414   	; 0x212e <__mulsf3>
    1ba8:	08 95       	ret

00001baa <getNavPvtLon>:
    1baa:	ef ed       	ldi	r30, 0xDF	; 223
    1bac:	fa e0       	ldi	r31, 0x0A	; 10
    1bae:	66 8d       	ldd	r22, Z+30	; 0x1e
    1bb0:	77 8d       	ldd	r23, Z+31	; 0x1f
    1bb2:	80 a1       	ldd	r24, Z+32	; 0x20
    1bb4:	91 a1       	ldd	r25, Z+33	; 0x21
    1bb6:	2f d2       	rcall	.+1118   	; 0x2016 <__floatsisf>
    1bb8:	25 e9       	ldi	r18, 0x95	; 149
    1bba:	3f eb       	ldi	r19, 0xBF	; 191
    1bbc:	46 ed       	ldi	r20, 0xD6	; 214
    1bbe:	53 e3       	ldi	r21, 0x33	; 51
    1bc0:	b6 c2       	rjmp	.+1388   	; 0x212e <__mulsf3>
    1bc2:	08 95       	ret

00001bc4 <getNavPvtFixType>:
    1bc4:	80 91 f9 0a 	lds	r24, 0x0AF9	; 0x800af9 <trameGpsNavPvtValide+0x1a>
    1bc8:	08 95       	ret

00001bca <calculerChecksum>:
    1bca:	dc 01       	movw	r26, r24
    1bcc:	6a 5f       	subi	r22, 0xFA	; 250
    1bce:	92 e0       	ldi	r25, 0x02	; 2
    1bd0:	30 e0       	ldi	r19, 0x00	; 0
    1bd2:	20 e0       	ldi	r18, 0x00	; 0
    1bd4:	07 c0       	rjmp	.+14     	; 0x1be4 <calculerChecksum+0x1a>
    1bd6:	fd 01       	movw	r30, r26
    1bd8:	e9 0f       	add	r30, r25
    1bda:	f1 1d       	adc	r31, r1
    1bdc:	40 81       	ld	r20, Z
    1bde:	24 0f       	add	r18, r20
    1be0:	32 0f       	add	r19, r18
    1be2:	9f 5f       	subi	r25, 0xFF	; 255
    1be4:	96 17       	cp	r25, r22
    1be6:	b8 f3       	brcs	.-18     	; 0x1bd6 <calculerChecksum+0xc>
    1be8:	83 2f       	mov	r24, r19
    1bea:	90 e0       	ldi	r25, 0x00	; 0
    1bec:	98 2f       	mov	r25, r24
    1bee:	88 27       	eor	r24, r24
    1bf0:	82 2b       	or	r24, r18
    1bf2:	08 95       	ret

00001bf4 <envoieConfigPortUart1>:
    1bf4:	cf 93       	push	r28
    1bf6:	df 93       	push	r29
    1bf8:	cd b7       	in	r28, 0x3d	; 61
    1bfa:	de b7       	in	r29, 0x3e	; 62
    1bfc:	6c 97       	sbiw	r28, 0x1c	; 28
    1bfe:	0f b6       	in	r0, 0x3f	; 63
    1c00:	f8 94       	cli
    1c02:	de bf       	out	0x3e, r29	; 62
    1c04:	0f be       	out	0x3f, r0	; 63
    1c06:	cd bf       	out	0x3d, r28	; 61
    1c08:	95 eb       	ldi	r25, 0xB5	; 181
    1c0a:	99 83       	std	Y+1, r25	; 0x01
    1c0c:	92 e6       	ldi	r25, 0x62	; 98
    1c0e:	9a 83       	std	Y+2, r25	; 0x02
    1c10:	96 e0       	ldi	r25, 0x06	; 6
    1c12:	9b 83       	std	Y+3, r25	; 0x03
    1c14:	1c 82       	std	Y+4, r1	; 0x04
    1c16:	94 e1       	ldi	r25, 0x14	; 20
    1c18:	9d 83       	std	Y+5, r25	; 0x05
    1c1a:	1e 82       	std	Y+6, r1	; 0x06
    1c1c:	91 e0       	ldi	r25, 0x01	; 1
    1c1e:	9f 83       	std	Y+7, r25	; 0x07
    1c20:	18 86       	std	Y+8, r1	; 0x08
    1c22:	19 86       	std	Y+9, r1	; 0x09
    1c24:	1a 86       	std	Y+10, r1	; 0x0a
    1c26:	20 ed       	ldi	r18, 0xD0	; 208
    1c28:	2b 87       	std	Y+11, r18	; 0x0b
    1c2a:	28 e0       	ldi	r18, 0x08	; 8
    1c2c:	2c 87       	std	Y+12, r18	; 0x0c
    1c2e:	1d 86       	std	Y+13, r1	; 0x0d
    1c30:	1e 86       	std	Y+14, r1	; 0x0e
    1c32:	6f 87       	std	Y+15, r22	; 0x0f
    1c34:	78 8b       	std	Y+16, r23	; 0x10
    1c36:	89 8b       	std	Y+17, r24	; 0x11
    1c38:	1a 8a       	std	Y+18, r1	; 0x12
    1c3a:	9b 8b       	std	Y+19, r25	; 0x13
    1c3c:	1c 8a       	std	Y+20, r1	; 0x14
    1c3e:	9d 8b       	std	Y+21, r25	; 0x15
    1c40:	1e 8a       	std	Y+22, r1	; 0x16
    1c42:	1f 8a       	std	Y+23, r1	; 0x17
    1c44:	18 8e       	std	Y+24, r1	; 0x18
    1c46:	19 8e       	std	Y+25, r1	; 0x19
    1c48:	1a 8e       	std	Y+26, r1	; 0x1a
    1c4a:	1b 8e       	std	Y+27, r1	; 0x1b
    1c4c:	1c 8e       	std	Y+28, r1	; 0x1c
    1c4e:	64 e1       	ldi	r22, 0x14	; 20
    1c50:	ce 01       	movw	r24, r28
    1c52:	01 96       	adiw	r24, 0x01	; 1
    1c54:	ba df       	rcall	.-140    	; 0x1bca <calculerChecksum>
    1c56:	8b 8f       	std	Y+27, r24	; 0x1b
    1c58:	9c 8f       	std	Y+28, r25	; 0x1c
    1c5a:	6c e1       	ldi	r22, 0x1C	; 28
    1c5c:	ce 01       	movw	r24, r28
    1c5e:	01 96       	adiw	r24, 0x01	; 1
    1c60:	9f db       	rcall	.-2242   	; 0x13a0 <usartGpsSendBytes>
    1c62:	10 92 26 03 	sts	0x0326, r1	; 0x800326 <ackConfigUart1>
    1c66:	6c 96       	adiw	r28, 0x1c	; 28
    1c68:	0f b6       	in	r0, 0x3f	; 63
    1c6a:	f8 94       	cli
    1c6c:	de bf       	out	0x3e, r29	; 62
    1c6e:	0f be       	out	0x3f, r0	; 63
    1c70:	cd bf       	out	0x3d, r28	; 61
    1c72:	df 91       	pop	r29
    1c74:	cf 91       	pop	r28
    1c76:	08 95       	ret

00001c78 <envoieConfigRate>:
    1c78:	cf 93       	push	r28
    1c7a:	df 93       	push	r29
    1c7c:	cd b7       	in	r28, 0x3d	; 61
    1c7e:	de b7       	in	r29, 0x3e	; 62
    1c80:	2e 97       	sbiw	r28, 0x0e	; 14
    1c82:	0f b6       	in	r0, 0x3f	; 63
    1c84:	f8 94       	cli
    1c86:	de bf       	out	0x3e, r29	; 62
    1c88:	0f be       	out	0x3f, r0	; 63
    1c8a:	cd bf       	out	0x3d, r28	; 61
    1c8c:	68 2f       	mov	r22, r24
    1c8e:	70 e0       	ldi	r23, 0x00	; 0
    1c90:	88 ee       	ldi	r24, 0xE8	; 232
    1c92:	93 e0       	ldi	r25, 0x03	; 3
    1c94:	38 d6       	rcall	.+3184   	; 0x2906 <__divmodhi4>
    1c96:	85 eb       	ldi	r24, 0xB5	; 181
    1c98:	89 83       	std	Y+1, r24	; 0x01
    1c9a:	82 e6       	ldi	r24, 0x62	; 98
    1c9c:	8a 83       	std	Y+2, r24	; 0x02
    1c9e:	86 e0       	ldi	r24, 0x06	; 6
    1ca0:	8b 83       	std	Y+3, r24	; 0x03
    1ca2:	98 e0       	ldi	r25, 0x08	; 8
    1ca4:	9c 83       	std	Y+4, r25	; 0x04
    1ca6:	8d 83       	std	Y+5, r24	; 0x05
    1ca8:	1e 82       	std	Y+6, r1	; 0x06
    1caa:	6f 83       	std	Y+7, r22	; 0x07
    1cac:	78 87       	std	Y+8, r23	; 0x08
    1cae:	81 e0       	ldi	r24, 0x01	; 1
    1cb0:	89 87       	std	Y+9, r24	; 0x09
    1cb2:	1a 86       	std	Y+10, r1	; 0x0a
    1cb4:	8b 87       	std	Y+11, r24	; 0x0b
    1cb6:	1c 86       	std	Y+12, r1	; 0x0c
    1cb8:	1d 86       	std	Y+13, r1	; 0x0d
    1cba:	1e 86       	std	Y+14, r1	; 0x0e
    1cbc:	66 e0       	ldi	r22, 0x06	; 6
    1cbe:	ce 01       	movw	r24, r28
    1cc0:	01 96       	adiw	r24, 0x01	; 1
    1cc2:	83 df       	rcall	.-250    	; 0x1bca <calculerChecksum>
    1cc4:	8d 87       	std	Y+13, r24	; 0x0d
    1cc6:	9e 87       	std	Y+14, r25	; 0x0e
    1cc8:	6e e0       	ldi	r22, 0x0E	; 14
    1cca:	ce 01       	movw	r24, r28
    1ccc:	01 96       	adiw	r24, 0x01	; 1
    1cce:	68 db       	rcall	.-2352   	; 0x13a0 <usartGpsSendBytes>
    1cd0:	10 92 25 03 	sts	0x0325, r1	; 0x800325 <ackConfigRate>
    1cd4:	2e 96       	adiw	r28, 0x0e	; 14
    1cd6:	0f b6       	in	r0, 0x3f	; 63
    1cd8:	f8 94       	cli
    1cda:	de bf       	out	0x3e, r29	; 62
    1cdc:	0f be       	out	0x3f, r0	; 63
    1cde:	cd bf       	out	0x3d, r28	; 61
    1ce0:	df 91       	pop	r29
    1ce2:	cf 91       	pop	r28
    1ce4:	08 95       	ret

00001ce6 <envoieConfigMsg>:
    1ce6:	cf 93       	push	r28
    1ce8:	df 93       	push	r29
    1cea:	cd b7       	in	r28, 0x3d	; 61
    1cec:	de b7       	in	r29, 0x3e	; 62
    1cee:	60 97       	sbiw	r28, 0x10	; 16
    1cf0:	0f b6       	in	r0, 0x3f	; 63
    1cf2:	f8 94       	cli
    1cf4:	de bf       	out	0x3e, r29	; 62
    1cf6:	0f be       	out	0x3f, r0	; 63
    1cf8:	cd bf       	out	0x3d, r28	; 61
    1cfa:	95 eb       	ldi	r25, 0xB5	; 181
    1cfc:	99 83       	std	Y+1, r25	; 0x01
    1cfe:	92 e6       	ldi	r25, 0x62	; 98
    1d00:	9a 83       	std	Y+2, r25	; 0x02
    1d02:	96 e0       	ldi	r25, 0x06	; 6
    1d04:	9b 83       	std	Y+3, r25	; 0x03
    1d06:	91 e0       	ldi	r25, 0x01	; 1
    1d08:	9c 83       	std	Y+4, r25	; 0x04
    1d0a:	28 e0       	ldi	r18, 0x08	; 8
    1d0c:	2d 83       	std	Y+5, r18	; 0x05
    1d0e:	1e 82       	std	Y+6, r1	; 0x06
    1d10:	9f 83       	std	Y+7, r25	; 0x07
    1d12:	88 87       	std	Y+8, r24	; 0x08
    1d14:	19 86       	std	Y+9, r1	; 0x09
    1d16:	6a 87       	std	Y+10, r22	; 0x0a
    1d18:	1b 86       	std	Y+11, r1	; 0x0b
    1d1a:	4c 87       	std	Y+12, r20	; 0x0c
    1d1c:	1d 86       	std	Y+13, r1	; 0x0d
    1d1e:	1e 86       	std	Y+14, r1	; 0x0e
    1d20:	1f 86       	std	Y+15, r1	; 0x0f
    1d22:	18 8a       	std	Y+16, r1	; 0x10
    1d24:	68 e0       	ldi	r22, 0x08	; 8
    1d26:	ce 01       	movw	r24, r28
    1d28:	01 96       	adiw	r24, 0x01	; 1
    1d2a:	4f df       	rcall	.-354    	; 0x1bca <calculerChecksum>
    1d2c:	8f 87       	std	Y+15, r24	; 0x0f
    1d2e:	98 8b       	std	Y+16, r25	; 0x10
    1d30:	60 e1       	ldi	r22, 0x10	; 16
    1d32:	ce 01       	movw	r24, r28
    1d34:	01 96       	adiw	r24, 0x01	; 1
    1d36:	34 db       	rcall	.-2456   	; 0x13a0 <usartGpsSendBytes>
    1d38:	10 92 24 03 	sts	0x0324, r1	; 0x800324 <ackConfigMsg>
    1d3c:	60 96       	adiw	r28, 0x10	; 16
    1d3e:	0f b6       	in	r0, 0x3f	; 63
    1d40:	f8 94       	cli
    1d42:	de bf       	out	0x3e, r29	; 62
    1d44:	0f be       	out	0x3f, r0	; 63
    1d46:	cd bf       	out	0x3d, r28	; 61
    1d48:	df 91       	pop	r29
    1d4a:	cf 91       	pop	r28
    1d4c:	08 95       	ret

00001d4e <getNavPvtTime>:

void getNavPvtTime(char* msg)
{
    1d4e:	0f 93       	push	r16
    1d50:	1f 93       	push	r17
    1d52:	cf 93       	push	r28
    1d54:	df 93       	push	r29
    1d56:	18 2f       	mov	r17, r24
    1d58:	09 2f       	mov	r16, r25
	uint8_t heure = trameGpsNavPvtValide[14];
    1d5a:	ef ed       	ldi	r30, 0xDF	; 223
    1d5c:	fa e0       	ldi	r31, 0x0A	; 10
    1d5e:	c6 85       	ldd	r28, Z+14	; 0x0e
	uint8_t minutes = trameGpsNavPvtValide[15];
    1d60:	d7 85       	ldd	r29, Z+15	; 0x0f
	
	if(getNavPvtFixType())
    1d62:	30 df       	rcall	.-416    	; 0x1bc4 <getNavPvtFixType>
    1d64:	81 11       	cpse	r24, r1
	{
		heure = heure - 4;
    1d66:	c4 50       	subi	r28, 0x04	; 4
	}
	if((minutes<10) && (heure<10))
    1d68:	da 30       	cpi	r29, 0x0A	; 10
    1d6a:	b0 f4       	brcc	.+44     	; 0x1d98 <getNavPvtTime+0x4a>
    1d6c:	ca 30       	cpi	r28, 0x0A	; 10
    1d6e:	a0 f4       	brcc	.+40     	; 0x1d98 <getNavPvtTime+0x4a>
	{
		sprintf(msg,"0%d:0%d",heure,minutes/*,trameGpsNavPvtValide[16]*/);
    1d70:	1f 92       	push	r1
    1d72:	df 93       	push	r29
    1d74:	1f 92       	push	r1
    1d76:	cf 93       	push	r28
    1d78:	8e e9       	ldi	r24, 0x9E	; 158
    1d7a:	92 e0       	ldi	r25, 0x02	; 2
    1d7c:	9f 93       	push	r25
    1d7e:	8f 93       	push	r24
    1d80:	0f 93       	push	r16
    1d82:	1f 93       	push	r17
    1d84:	79 d7       	rcall	.+3826   	; 0x2c78 <sprintf>
    1d86:	8d b7       	in	r24, 0x3d	; 61
    1d88:	9e b7       	in	r25, 0x3e	; 62
    1d8a:	08 96       	adiw	r24, 0x08	; 8
    1d8c:	0f b6       	in	r0, 0x3f	; 63
    1d8e:	f8 94       	cli
    1d90:	9e bf       	out	0x3e, r25	; 62
    1d92:	0f be       	out	0x3f, r0	; 63
    1d94:	8d bf       	out	0x3d, r24	; 61
    1d96:	3f c0       	rjmp	.+126    	; 0x1e16 <getNavPvtTime+0xc8>
	}
	else if(minutes<10)
    1d98:	da 30       	cpi	r29, 0x0A	; 10
    1d9a:	a0 f4       	brcc	.+40     	; 0x1dc4 <getNavPvtTime+0x76>
	{
		sprintf(msg,"%d:0%d",heure,minutes/*,trameGpsNavPvtValide[16]*/);
    1d9c:	1f 92       	push	r1
    1d9e:	df 93       	push	r29
    1da0:	1f 92       	push	r1
    1da2:	cf 93       	push	r28
    1da4:	8f e9       	ldi	r24, 0x9F	; 159
    1da6:	92 e0       	ldi	r25, 0x02	; 2
    1da8:	9f 93       	push	r25
    1daa:	8f 93       	push	r24
    1dac:	0f 93       	push	r16
    1dae:	1f 93       	push	r17
    1db0:	63 d7       	rcall	.+3782   	; 0x2c78 <sprintf>
    1db2:	8d b7       	in	r24, 0x3d	; 61
    1db4:	9e b7       	in	r25, 0x3e	; 62
    1db6:	08 96       	adiw	r24, 0x08	; 8
    1db8:	0f b6       	in	r0, 0x3f	; 63
    1dba:	f8 94       	cli
    1dbc:	9e bf       	out	0x3e, r25	; 62
    1dbe:	0f be       	out	0x3f, r0	; 63
    1dc0:	8d bf       	out	0x3d, r24	; 61
    1dc2:	29 c0       	rjmp	.+82     	; 0x1e16 <getNavPvtTime+0xc8>
	}
	else if (heure<10)
    1dc4:	ca 30       	cpi	r28, 0x0A	; 10
    1dc6:	a0 f4       	brcc	.+40     	; 0x1df0 <getNavPvtTime+0xa2>
	{
		sprintf(msg,"0%d:%d",heure,minutes/*,trameGpsNavPvtValide[16]*/);
    1dc8:	1f 92       	push	r1
    1dca:	df 93       	push	r29
    1dcc:	1f 92       	push	r1
    1dce:	cf 93       	push	r28
    1dd0:	86 ea       	ldi	r24, 0xA6	; 166
    1dd2:	92 e0       	ldi	r25, 0x02	; 2
    1dd4:	9f 93       	push	r25
    1dd6:	8f 93       	push	r24
    1dd8:	0f 93       	push	r16
    1dda:	1f 93       	push	r17
    1ddc:	4d d7       	rcall	.+3738   	; 0x2c78 <sprintf>
    1dde:	8d b7       	in	r24, 0x3d	; 61
    1de0:	9e b7       	in	r25, 0x3e	; 62
    1de2:	08 96       	adiw	r24, 0x08	; 8
    1de4:	0f b6       	in	r0, 0x3f	; 63
    1de6:	f8 94       	cli
    1de8:	9e bf       	out	0x3e, r25	; 62
    1dea:	0f be       	out	0x3f, r0	; 63
    1dec:	8d bf       	out	0x3d, r24	; 61
    1dee:	13 c0       	rjmp	.+38     	; 0x1e16 <getNavPvtTime+0xc8>
	}
	else
	{
		sprintf(msg,"%d:%d",heure,minutes/*,trameGpsNavPvtValide[16]*/);
    1df0:	1f 92       	push	r1
    1df2:	df 93       	push	r29
    1df4:	1f 92       	push	r1
    1df6:	cf 93       	push	r28
    1df8:	87 ea       	ldi	r24, 0xA7	; 167
    1dfa:	92 e0       	ldi	r25, 0x02	; 2
    1dfc:	9f 93       	push	r25
    1dfe:	8f 93       	push	r24
    1e00:	0f 93       	push	r16
    1e02:	1f 93       	push	r17
    1e04:	39 d7       	rcall	.+3698   	; 0x2c78 <sprintf>
    1e06:	8d b7       	in	r24, 0x3d	; 61
    1e08:	9e b7       	in	r25, 0x3e	; 62
    1e0a:	08 96       	adiw	r24, 0x08	; 8
    1e0c:	0f b6       	in	r0, 0x3f	; 63
    1e0e:	f8 94       	cli
    1e10:	9e bf       	out	0x3e, r25	; 62
    1e12:	0f be       	out	0x3f, r0	; 63
    1e14:	8d bf       	out	0x3d, r24	; 61
	}
}
    1e16:	df 91       	pop	r29
    1e18:	cf 91       	pop	r28
    1e1a:	1f 91       	pop	r17
    1e1c:	0f 91       	pop	r16
    1e1e:	08 95       	ret

00001e20 <__subsf3>:
    1e20:	50 58       	subi	r21, 0x80	; 128

00001e22 <__addsf3>:
    1e22:	bb 27       	eor	r27, r27
    1e24:	aa 27       	eor	r26, r26
    1e26:	0e d0       	rcall	.+28     	; 0x1e44 <__addsf3x>
    1e28:	48 c1       	rjmp	.+656    	; 0x20ba <__fp_round>
    1e2a:	39 d1       	rcall	.+626    	; 0x209e <__fp_pscA>
    1e2c:	30 f0       	brcs	.+12     	; 0x1e3a <__addsf3+0x18>
    1e2e:	3e d1       	rcall	.+636    	; 0x20ac <__fp_pscB>
    1e30:	20 f0       	brcs	.+8      	; 0x1e3a <__addsf3+0x18>
    1e32:	31 f4       	brne	.+12     	; 0x1e40 <__addsf3+0x1e>
    1e34:	9f 3f       	cpi	r25, 0xFF	; 255
    1e36:	11 f4       	brne	.+4      	; 0x1e3c <__addsf3+0x1a>
    1e38:	1e f4       	brtc	.+6      	; 0x1e40 <__addsf3+0x1e>
    1e3a:	2e c1       	rjmp	.+604    	; 0x2098 <__fp_nan>
    1e3c:	0e f4       	brtc	.+2      	; 0x1e40 <__addsf3+0x1e>
    1e3e:	e0 95       	com	r30
    1e40:	e7 fb       	bst	r30, 7
    1e42:	24 c1       	rjmp	.+584    	; 0x208c <__fp_inf>

00001e44 <__addsf3x>:
    1e44:	e9 2f       	mov	r30, r25
    1e46:	4a d1       	rcall	.+660    	; 0x20dc <__fp_split3>
    1e48:	80 f3       	brcs	.-32     	; 0x1e2a <__addsf3+0x8>
    1e4a:	ba 17       	cp	r27, r26
    1e4c:	62 07       	cpc	r22, r18
    1e4e:	73 07       	cpc	r23, r19
    1e50:	84 07       	cpc	r24, r20
    1e52:	95 07       	cpc	r25, r21
    1e54:	18 f0       	brcs	.+6      	; 0x1e5c <__addsf3x+0x18>
    1e56:	71 f4       	brne	.+28     	; 0x1e74 <__addsf3x+0x30>
    1e58:	9e f5       	brtc	.+102    	; 0x1ec0 <__addsf3x+0x7c>
    1e5a:	62 c1       	rjmp	.+708    	; 0x2120 <__fp_zero>
    1e5c:	0e f4       	brtc	.+2      	; 0x1e60 <__addsf3x+0x1c>
    1e5e:	e0 95       	com	r30
    1e60:	0b 2e       	mov	r0, r27
    1e62:	ba 2f       	mov	r27, r26
    1e64:	a0 2d       	mov	r26, r0
    1e66:	0b 01       	movw	r0, r22
    1e68:	b9 01       	movw	r22, r18
    1e6a:	90 01       	movw	r18, r0
    1e6c:	0c 01       	movw	r0, r24
    1e6e:	ca 01       	movw	r24, r20
    1e70:	a0 01       	movw	r20, r0
    1e72:	11 24       	eor	r1, r1
    1e74:	ff 27       	eor	r31, r31
    1e76:	59 1b       	sub	r21, r25
    1e78:	99 f0       	breq	.+38     	; 0x1ea0 <__addsf3x+0x5c>
    1e7a:	59 3f       	cpi	r21, 0xF9	; 249
    1e7c:	50 f4       	brcc	.+20     	; 0x1e92 <__addsf3x+0x4e>
    1e7e:	50 3e       	cpi	r21, 0xE0	; 224
    1e80:	68 f1       	brcs	.+90     	; 0x1edc <__addsf3x+0x98>
    1e82:	1a 16       	cp	r1, r26
    1e84:	f0 40       	sbci	r31, 0x00	; 0
    1e86:	a2 2f       	mov	r26, r18
    1e88:	23 2f       	mov	r18, r19
    1e8a:	34 2f       	mov	r19, r20
    1e8c:	44 27       	eor	r20, r20
    1e8e:	58 5f       	subi	r21, 0xF8	; 248
    1e90:	f3 cf       	rjmp	.-26     	; 0x1e78 <__addsf3x+0x34>
    1e92:	46 95       	lsr	r20
    1e94:	37 95       	ror	r19
    1e96:	27 95       	ror	r18
    1e98:	a7 95       	ror	r26
    1e9a:	f0 40       	sbci	r31, 0x00	; 0
    1e9c:	53 95       	inc	r21
    1e9e:	c9 f7       	brne	.-14     	; 0x1e92 <__addsf3x+0x4e>
    1ea0:	7e f4       	brtc	.+30     	; 0x1ec0 <__addsf3x+0x7c>
    1ea2:	1f 16       	cp	r1, r31
    1ea4:	ba 0b       	sbc	r27, r26
    1ea6:	62 0b       	sbc	r22, r18
    1ea8:	73 0b       	sbc	r23, r19
    1eaa:	84 0b       	sbc	r24, r20
    1eac:	ba f0       	brmi	.+46     	; 0x1edc <__addsf3x+0x98>
    1eae:	91 50       	subi	r25, 0x01	; 1
    1eb0:	a1 f0       	breq	.+40     	; 0x1eda <__addsf3x+0x96>
    1eb2:	ff 0f       	add	r31, r31
    1eb4:	bb 1f       	adc	r27, r27
    1eb6:	66 1f       	adc	r22, r22
    1eb8:	77 1f       	adc	r23, r23
    1eba:	88 1f       	adc	r24, r24
    1ebc:	c2 f7       	brpl	.-16     	; 0x1eae <__addsf3x+0x6a>
    1ebe:	0e c0       	rjmp	.+28     	; 0x1edc <__addsf3x+0x98>
    1ec0:	ba 0f       	add	r27, r26
    1ec2:	62 1f       	adc	r22, r18
    1ec4:	73 1f       	adc	r23, r19
    1ec6:	84 1f       	adc	r24, r20
    1ec8:	48 f4       	brcc	.+18     	; 0x1edc <__addsf3x+0x98>
    1eca:	87 95       	ror	r24
    1ecc:	77 95       	ror	r23
    1ece:	67 95       	ror	r22
    1ed0:	b7 95       	ror	r27
    1ed2:	f7 95       	ror	r31
    1ed4:	9e 3f       	cpi	r25, 0xFE	; 254
    1ed6:	08 f0       	brcs	.+2      	; 0x1eda <__addsf3x+0x96>
    1ed8:	b3 cf       	rjmp	.-154    	; 0x1e40 <__addsf3+0x1e>
    1eda:	93 95       	inc	r25
    1edc:	88 0f       	add	r24, r24
    1ede:	08 f0       	brcs	.+2      	; 0x1ee2 <__addsf3x+0x9e>
    1ee0:	99 27       	eor	r25, r25
    1ee2:	ee 0f       	add	r30, r30
    1ee4:	97 95       	ror	r25
    1ee6:	87 95       	ror	r24
    1ee8:	08 95       	ret

00001eea <__divsf3>:
    1eea:	0c d0       	rcall	.+24     	; 0x1f04 <__divsf3x>
    1eec:	e6 c0       	rjmp	.+460    	; 0x20ba <__fp_round>
    1eee:	de d0       	rcall	.+444    	; 0x20ac <__fp_pscB>
    1ef0:	40 f0       	brcs	.+16     	; 0x1f02 <__divsf3+0x18>
    1ef2:	d5 d0       	rcall	.+426    	; 0x209e <__fp_pscA>
    1ef4:	30 f0       	brcs	.+12     	; 0x1f02 <__divsf3+0x18>
    1ef6:	21 f4       	brne	.+8      	; 0x1f00 <__divsf3+0x16>
    1ef8:	5f 3f       	cpi	r21, 0xFF	; 255
    1efa:	19 f0       	breq	.+6      	; 0x1f02 <__divsf3+0x18>
    1efc:	c7 c0       	rjmp	.+398    	; 0x208c <__fp_inf>
    1efe:	51 11       	cpse	r21, r1
    1f00:	10 c1       	rjmp	.+544    	; 0x2122 <__fp_szero>
    1f02:	ca c0       	rjmp	.+404    	; 0x2098 <__fp_nan>

00001f04 <__divsf3x>:
    1f04:	eb d0       	rcall	.+470    	; 0x20dc <__fp_split3>
    1f06:	98 f3       	brcs	.-26     	; 0x1eee <__divsf3+0x4>

00001f08 <__divsf3_pse>:
    1f08:	99 23       	and	r25, r25
    1f0a:	c9 f3       	breq	.-14     	; 0x1efe <__divsf3+0x14>
    1f0c:	55 23       	and	r21, r21
    1f0e:	b1 f3       	breq	.-20     	; 0x1efc <__divsf3+0x12>
    1f10:	95 1b       	sub	r25, r21
    1f12:	55 0b       	sbc	r21, r21
    1f14:	bb 27       	eor	r27, r27
    1f16:	aa 27       	eor	r26, r26
    1f18:	62 17       	cp	r22, r18
    1f1a:	73 07       	cpc	r23, r19
    1f1c:	84 07       	cpc	r24, r20
    1f1e:	38 f0       	brcs	.+14     	; 0x1f2e <__divsf3_pse+0x26>
    1f20:	9f 5f       	subi	r25, 0xFF	; 255
    1f22:	5f 4f       	sbci	r21, 0xFF	; 255
    1f24:	22 0f       	add	r18, r18
    1f26:	33 1f       	adc	r19, r19
    1f28:	44 1f       	adc	r20, r20
    1f2a:	aa 1f       	adc	r26, r26
    1f2c:	a9 f3       	breq	.-22     	; 0x1f18 <__divsf3_pse+0x10>
    1f2e:	33 d0       	rcall	.+102    	; 0x1f96 <__divsf3_pse+0x8e>
    1f30:	0e 2e       	mov	r0, r30
    1f32:	3a f0       	brmi	.+14     	; 0x1f42 <__divsf3_pse+0x3a>
    1f34:	e0 e8       	ldi	r30, 0x80	; 128
    1f36:	30 d0       	rcall	.+96     	; 0x1f98 <__divsf3_pse+0x90>
    1f38:	91 50       	subi	r25, 0x01	; 1
    1f3a:	50 40       	sbci	r21, 0x00	; 0
    1f3c:	e6 95       	lsr	r30
    1f3e:	00 1c       	adc	r0, r0
    1f40:	ca f7       	brpl	.-14     	; 0x1f34 <__divsf3_pse+0x2c>
    1f42:	29 d0       	rcall	.+82     	; 0x1f96 <__divsf3_pse+0x8e>
    1f44:	fe 2f       	mov	r31, r30
    1f46:	27 d0       	rcall	.+78     	; 0x1f96 <__divsf3_pse+0x8e>
    1f48:	66 0f       	add	r22, r22
    1f4a:	77 1f       	adc	r23, r23
    1f4c:	88 1f       	adc	r24, r24
    1f4e:	bb 1f       	adc	r27, r27
    1f50:	26 17       	cp	r18, r22
    1f52:	37 07       	cpc	r19, r23
    1f54:	48 07       	cpc	r20, r24
    1f56:	ab 07       	cpc	r26, r27
    1f58:	b0 e8       	ldi	r27, 0x80	; 128
    1f5a:	09 f0       	breq	.+2      	; 0x1f5e <__divsf3_pse+0x56>
    1f5c:	bb 0b       	sbc	r27, r27
    1f5e:	80 2d       	mov	r24, r0
    1f60:	bf 01       	movw	r22, r30
    1f62:	ff 27       	eor	r31, r31
    1f64:	93 58       	subi	r25, 0x83	; 131
    1f66:	5f 4f       	sbci	r21, 0xFF	; 255
    1f68:	2a f0       	brmi	.+10     	; 0x1f74 <__divsf3_pse+0x6c>
    1f6a:	9e 3f       	cpi	r25, 0xFE	; 254
    1f6c:	51 05       	cpc	r21, r1
    1f6e:	68 f0       	brcs	.+26     	; 0x1f8a <__divsf3_pse+0x82>
    1f70:	8d c0       	rjmp	.+282    	; 0x208c <__fp_inf>
    1f72:	d7 c0       	rjmp	.+430    	; 0x2122 <__fp_szero>
    1f74:	5f 3f       	cpi	r21, 0xFF	; 255
    1f76:	ec f3       	brlt	.-6      	; 0x1f72 <__divsf3_pse+0x6a>
    1f78:	98 3e       	cpi	r25, 0xE8	; 232
    1f7a:	dc f3       	brlt	.-10     	; 0x1f72 <__divsf3_pse+0x6a>
    1f7c:	86 95       	lsr	r24
    1f7e:	77 95       	ror	r23
    1f80:	67 95       	ror	r22
    1f82:	b7 95       	ror	r27
    1f84:	f7 95       	ror	r31
    1f86:	9f 5f       	subi	r25, 0xFF	; 255
    1f88:	c9 f7       	brne	.-14     	; 0x1f7c <__divsf3_pse+0x74>
    1f8a:	88 0f       	add	r24, r24
    1f8c:	91 1d       	adc	r25, r1
    1f8e:	96 95       	lsr	r25
    1f90:	87 95       	ror	r24
    1f92:	97 f9       	bld	r25, 7
    1f94:	08 95       	ret
    1f96:	e1 e0       	ldi	r30, 0x01	; 1
    1f98:	66 0f       	add	r22, r22
    1f9a:	77 1f       	adc	r23, r23
    1f9c:	88 1f       	adc	r24, r24
    1f9e:	bb 1f       	adc	r27, r27
    1fa0:	62 17       	cp	r22, r18
    1fa2:	73 07       	cpc	r23, r19
    1fa4:	84 07       	cpc	r24, r20
    1fa6:	ba 07       	cpc	r27, r26
    1fa8:	20 f0       	brcs	.+8      	; 0x1fb2 <__divsf3_pse+0xaa>
    1faa:	62 1b       	sub	r22, r18
    1fac:	73 0b       	sbc	r23, r19
    1fae:	84 0b       	sbc	r24, r20
    1fb0:	ba 0b       	sbc	r27, r26
    1fb2:	ee 1f       	adc	r30, r30
    1fb4:	88 f7       	brcc	.-30     	; 0x1f98 <__divsf3_pse+0x90>
    1fb6:	e0 95       	com	r30
    1fb8:	08 95       	ret

00001fba <__fixunssfsi>:
    1fba:	98 d0       	rcall	.+304    	; 0x20ec <__fp_splitA>
    1fbc:	88 f0       	brcs	.+34     	; 0x1fe0 <__fixunssfsi+0x26>
    1fbe:	9f 57       	subi	r25, 0x7F	; 127
    1fc0:	90 f0       	brcs	.+36     	; 0x1fe6 <__fixunssfsi+0x2c>
    1fc2:	b9 2f       	mov	r27, r25
    1fc4:	99 27       	eor	r25, r25
    1fc6:	b7 51       	subi	r27, 0x17	; 23
    1fc8:	a0 f0       	brcs	.+40     	; 0x1ff2 <__fixunssfsi+0x38>
    1fca:	d1 f0       	breq	.+52     	; 0x2000 <__DATA_REGION_LENGTH__>
    1fcc:	66 0f       	add	r22, r22
    1fce:	77 1f       	adc	r23, r23
    1fd0:	88 1f       	adc	r24, r24
    1fd2:	99 1f       	adc	r25, r25
    1fd4:	1a f0       	brmi	.+6      	; 0x1fdc <__fixunssfsi+0x22>
    1fd6:	ba 95       	dec	r27
    1fd8:	c9 f7       	brne	.-14     	; 0x1fcc <__fixunssfsi+0x12>
    1fda:	12 c0       	rjmp	.+36     	; 0x2000 <__DATA_REGION_LENGTH__>
    1fdc:	b1 30       	cpi	r27, 0x01	; 1
    1fde:	81 f0       	breq	.+32     	; 0x2000 <__DATA_REGION_LENGTH__>
    1fe0:	9f d0       	rcall	.+318    	; 0x2120 <__fp_zero>
    1fe2:	b1 e0       	ldi	r27, 0x01	; 1
    1fe4:	08 95       	ret
    1fe6:	9c c0       	rjmp	.+312    	; 0x2120 <__fp_zero>
    1fe8:	67 2f       	mov	r22, r23
    1fea:	78 2f       	mov	r23, r24
    1fec:	88 27       	eor	r24, r24
    1fee:	b8 5f       	subi	r27, 0xF8	; 248
    1ff0:	39 f0       	breq	.+14     	; 0x2000 <__DATA_REGION_LENGTH__>
    1ff2:	b9 3f       	cpi	r27, 0xF9	; 249
    1ff4:	cc f3       	brlt	.-14     	; 0x1fe8 <__fixunssfsi+0x2e>
    1ff6:	86 95       	lsr	r24
    1ff8:	77 95       	ror	r23
    1ffa:	67 95       	ror	r22
    1ffc:	b3 95       	inc	r27
    1ffe:	d9 f7       	brne	.-10     	; 0x1ff6 <__fixunssfsi+0x3c>
    2000:	3e f4       	brtc	.+14     	; 0x2010 <__DATA_REGION_LENGTH__+0x10>
    2002:	90 95       	com	r25
    2004:	80 95       	com	r24
    2006:	70 95       	com	r23
    2008:	61 95       	neg	r22
    200a:	7f 4f       	sbci	r23, 0xFF	; 255
    200c:	8f 4f       	sbci	r24, 0xFF	; 255
    200e:	9f 4f       	sbci	r25, 0xFF	; 255
    2010:	08 95       	ret

00002012 <__floatunsisf>:
    2012:	e8 94       	clt
    2014:	09 c0       	rjmp	.+18     	; 0x2028 <__floatsisf+0x12>

00002016 <__floatsisf>:
    2016:	97 fb       	bst	r25, 7
    2018:	3e f4       	brtc	.+14     	; 0x2028 <__floatsisf+0x12>
    201a:	90 95       	com	r25
    201c:	80 95       	com	r24
    201e:	70 95       	com	r23
    2020:	61 95       	neg	r22
    2022:	7f 4f       	sbci	r23, 0xFF	; 255
    2024:	8f 4f       	sbci	r24, 0xFF	; 255
    2026:	9f 4f       	sbci	r25, 0xFF	; 255
    2028:	99 23       	and	r25, r25
    202a:	a9 f0       	breq	.+42     	; 0x2056 <__floatsisf+0x40>
    202c:	f9 2f       	mov	r31, r25
    202e:	96 e9       	ldi	r25, 0x96	; 150
    2030:	bb 27       	eor	r27, r27
    2032:	93 95       	inc	r25
    2034:	f6 95       	lsr	r31
    2036:	87 95       	ror	r24
    2038:	77 95       	ror	r23
    203a:	67 95       	ror	r22
    203c:	b7 95       	ror	r27
    203e:	f1 11       	cpse	r31, r1
    2040:	f8 cf       	rjmp	.-16     	; 0x2032 <__floatsisf+0x1c>
    2042:	fa f4       	brpl	.+62     	; 0x2082 <__floatsisf+0x6c>
    2044:	bb 0f       	add	r27, r27
    2046:	11 f4       	brne	.+4      	; 0x204c <__floatsisf+0x36>
    2048:	60 ff       	sbrs	r22, 0
    204a:	1b c0       	rjmp	.+54     	; 0x2082 <__floatsisf+0x6c>
    204c:	6f 5f       	subi	r22, 0xFF	; 255
    204e:	7f 4f       	sbci	r23, 0xFF	; 255
    2050:	8f 4f       	sbci	r24, 0xFF	; 255
    2052:	9f 4f       	sbci	r25, 0xFF	; 255
    2054:	16 c0       	rjmp	.+44     	; 0x2082 <__floatsisf+0x6c>
    2056:	88 23       	and	r24, r24
    2058:	11 f0       	breq	.+4      	; 0x205e <__floatsisf+0x48>
    205a:	96 e9       	ldi	r25, 0x96	; 150
    205c:	11 c0       	rjmp	.+34     	; 0x2080 <__floatsisf+0x6a>
    205e:	77 23       	and	r23, r23
    2060:	21 f0       	breq	.+8      	; 0x206a <__floatsisf+0x54>
    2062:	9e e8       	ldi	r25, 0x8E	; 142
    2064:	87 2f       	mov	r24, r23
    2066:	76 2f       	mov	r23, r22
    2068:	05 c0       	rjmp	.+10     	; 0x2074 <__floatsisf+0x5e>
    206a:	66 23       	and	r22, r22
    206c:	71 f0       	breq	.+28     	; 0x208a <__floatsisf+0x74>
    206e:	96 e8       	ldi	r25, 0x86	; 134
    2070:	86 2f       	mov	r24, r22
    2072:	70 e0       	ldi	r23, 0x00	; 0
    2074:	60 e0       	ldi	r22, 0x00	; 0
    2076:	2a f0       	brmi	.+10     	; 0x2082 <__floatsisf+0x6c>
    2078:	9a 95       	dec	r25
    207a:	66 0f       	add	r22, r22
    207c:	77 1f       	adc	r23, r23
    207e:	88 1f       	adc	r24, r24
    2080:	da f7       	brpl	.-10     	; 0x2078 <__floatsisf+0x62>
    2082:	88 0f       	add	r24, r24
    2084:	96 95       	lsr	r25
    2086:	87 95       	ror	r24
    2088:	97 f9       	bld	r25, 7
    208a:	08 95       	ret

0000208c <__fp_inf>:
    208c:	97 f9       	bld	r25, 7
    208e:	9f 67       	ori	r25, 0x7F	; 127
    2090:	80 e8       	ldi	r24, 0x80	; 128
    2092:	70 e0       	ldi	r23, 0x00	; 0
    2094:	60 e0       	ldi	r22, 0x00	; 0
    2096:	08 95       	ret

00002098 <__fp_nan>:
    2098:	9f ef       	ldi	r25, 0xFF	; 255
    209a:	80 ec       	ldi	r24, 0xC0	; 192
    209c:	08 95       	ret

0000209e <__fp_pscA>:
    209e:	00 24       	eor	r0, r0
    20a0:	0a 94       	dec	r0
    20a2:	16 16       	cp	r1, r22
    20a4:	17 06       	cpc	r1, r23
    20a6:	18 06       	cpc	r1, r24
    20a8:	09 06       	cpc	r0, r25
    20aa:	08 95       	ret

000020ac <__fp_pscB>:
    20ac:	00 24       	eor	r0, r0
    20ae:	0a 94       	dec	r0
    20b0:	12 16       	cp	r1, r18
    20b2:	13 06       	cpc	r1, r19
    20b4:	14 06       	cpc	r1, r20
    20b6:	05 06       	cpc	r0, r21
    20b8:	08 95       	ret

000020ba <__fp_round>:
    20ba:	09 2e       	mov	r0, r25
    20bc:	03 94       	inc	r0
    20be:	00 0c       	add	r0, r0
    20c0:	11 f4       	brne	.+4      	; 0x20c6 <__fp_round+0xc>
    20c2:	88 23       	and	r24, r24
    20c4:	52 f0       	brmi	.+20     	; 0x20da <__fp_round+0x20>
    20c6:	bb 0f       	add	r27, r27
    20c8:	40 f4       	brcc	.+16     	; 0x20da <__fp_round+0x20>
    20ca:	bf 2b       	or	r27, r31
    20cc:	11 f4       	brne	.+4      	; 0x20d2 <__fp_round+0x18>
    20ce:	60 ff       	sbrs	r22, 0
    20d0:	04 c0       	rjmp	.+8      	; 0x20da <__fp_round+0x20>
    20d2:	6f 5f       	subi	r22, 0xFF	; 255
    20d4:	7f 4f       	sbci	r23, 0xFF	; 255
    20d6:	8f 4f       	sbci	r24, 0xFF	; 255
    20d8:	9f 4f       	sbci	r25, 0xFF	; 255
    20da:	08 95       	ret

000020dc <__fp_split3>:
    20dc:	57 fd       	sbrc	r21, 7
    20de:	90 58       	subi	r25, 0x80	; 128
    20e0:	44 0f       	add	r20, r20
    20e2:	55 1f       	adc	r21, r21
    20e4:	59 f0       	breq	.+22     	; 0x20fc <__fp_splitA+0x10>
    20e6:	5f 3f       	cpi	r21, 0xFF	; 255
    20e8:	71 f0       	breq	.+28     	; 0x2106 <__fp_splitA+0x1a>
    20ea:	47 95       	ror	r20

000020ec <__fp_splitA>:
    20ec:	88 0f       	add	r24, r24
    20ee:	97 fb       	bst	r25, 7
    20f0:	99 1f       	adc	r25, r25
    20f2:	61 f0       	breq	.+24     	; 0x210c <__fp_splitA+0x20>
    20f4:	9f 3f       	cpi	r25, 0xFF	; 255
    20f6:	79 f0       	breq	.+30     	; 0x2116 <__fp_splitA+0x2a>
    20f8:	87 95       	ror	r24
    20fa:	08 95       	ret
    20fc:	12 16       	cp	r1, r18
    20fe:	13 06       	cpc	r1, r19
    2100:	14 06       	cpc	r1, r20
    2102:	55 1f       	adc	r21, r21
    2104:	f2 cf       	rjmp	.-28     	; 0x20ea <__fp_split3+0xe>
    2106:	46 95       	lsr	r20
    2108:	f1 df       	rcall	.-30     	; 0x20ec <__fp_splitA>
    210a:	08 c0       	rjmp	.+16     	; 0x211c <__fp_splitA+0x30>
    210c:	16 16       	cp	r1, r22
    210e:	17 06       	cpc	r1, r23
    2110:	18 06       	cpc	r1, r24
    2112:	99 1f       	adc	r25, r25
    2114:	f1 cf       	rjmp	.-30     	; 0x20f8 <__fp_splitA+0xc>
    2116:	86 95       	lsr	r24
    2118:	71 05       	cpc	r23, r1
    211a:	61 05       	cpc	r22, r1
    211c:	08 94       	sec
    211e:	08 95       	ret

00002120 <__fp_zero>:
    2120:	e8 94       	clt

00002122 <__fp_szero>:
    2122:	bb 27       	eor	r27, r27
    2124:	66 27       	eor	r22, r22
    2126:	77 27       	eor	r23, r23
    2128:	cb 01       	movw	r24, r22
    212a:	97 f9       	bld	r25, 7
    212c:	08 95       	ret

0000212e <__mulsf3>:
    212e:	0b d0       	rcall	.+22     	; 0x2146 <__mulsf3x>
    2130:	c4 cf       	rjmp	.-120    	; 0x20ba <__fp_round>
    2132:	b5 df       	rcall	.-150    	; 0x209e <__fp_pscA>
    2134:	28 f0       	brcs	.+10     	; 0x2140 <__mulsf3+0x12>
    2136:	ba df       	rcall	.-140    	; 0x20ac <__fp_pscB>
    2138:	18 f0       	brcs	.+6      	; 0x2140 <__mulsf3+0x12>
    213a:	95 23       	and	r25, r21
    213c:	09 f0       	breq	.+2      	; 0x2140 <__mulsf3+0x12>
    213e:	a6 cf       	rjmp	.-180    	; 0x208c <__fp_inf>
    2140:	ab cf       	rjmp	.-170    	; 0x2098 <__fp_nan>
    2142:	11 24       	eor	r1, r1
    2144:	ee cf       	rjmp	.-36     	; 0x2122 <__fp_szero>

00002146 <__mulsf3x>:
    2146:	ca df       	rcall	.-108    	; 0x20dc <__fp_split3>
    2148:	a0 f3       	brcs	.-24     	; 0x2132 <__mulsf3+0x4>

0000214a <__mulsf3_pse>:
    214a:	95 9f       	mul	r25, r21
    214c:	d1 f3       	breq	.-12     	; 0x2142 <__mulsf3+0x14>
    214e:	95 0f       	add	r25, r21
    2150:	50 e0       	ldi	r21, 0x00	; 0
    2152:	55 1f       	adc	r21, r21
    2154:	62 9f       	mul	r22, r18
    2156:	f0 01       	movw	r30, r0
    2158:	72 9f       	mul	r23, r18
    215a:	bb 27       	eor	r27, r27
    215c:	f0 0d       	add	r31, r0
    215e:	b1 1d       	adc	r27, r1
    2160:	63 9f       	mul	r22, r19
    2162:	aa 27       	eor	r26, r26
    2164:	f0 0d       	add	r31, r0
    2166:	b1 1d       	adc	r27, r1
    2168:	aa 1f       	adc	r26, r26
    216a:	64 9f       	mul	r22, r20
    216c:	66 27       	eor	r22, r22
    216e:	b0 0d       	add	r27, r0
    2170:	a1 1d       	adc	r26, r1
    2172:	66 1f       	adc	r22, r22
    2174:	82 9f       	mul	r24, r18
    2176:	22 27       	eor	r18, r18
    2178:	b0 0d       	add	r27, r0
    217a:	a1 1d       	adc	r26, r1
    217c:	62 1f       	adc	r22, r18
    217e:	73 9f       	mul	r23, r19
    2180:	b0 0d       	add	r27, r0
    2182:	a1 1d       	adc	r26, r1
    2184:	62 1f       	adc	r22, r18
    2186:	83 9f       	mul	r24, r19
    2188:	a0 0d       	add	r26, r0
    218a:	61 1d       	adc	r22, r1
    218c:	22 1f       	adc	r18, r18
    218e:	74 9f       	mul	r23, r20
    2190:	33 27       	eor	r19, r19
    2192:	a0 0d       	add	r26, r0
    2194:	61 1d       	adc	r22, r1
    2196:	23 1f       	adc	r18, r19
    2198:	84 9f       	mul	r24, r20
    219a:	60 0d       	add	r22, r0
    219c:	21 1d       	adc	r18, r1
    219e:	82 2f       	mov	r24, r18
    21a0:	76 2f       	mov	r23, r22
    21a2:	6a 2f       	mov	r22, r26
    21a4:	11 24       	eor	r1, r1
    21a6:	9f 57       	subi	r25, 0x7F	; 127
    21a8:	50 40       	sbci	r21, 0x00	; 0
    21aa:	8a f0       	brmi	.+34     	; 0x21ce <__mulsf3_pse+0x84>
    21ac:	e1 f0       	breq	.+56     	; 0x21e6 <__mulsf3_pse+0x9c>
    21ae:	88 23       	and	r24, r24
    21b0:	4a f0       	brmi	.+18     	; 0x21c4 <__mulsf3_pse+0x7a>
    21b2:	ee 0f       	add	r30, r30
    21b4:	ff 1f       	adc	r31, r31
    21b6:	bb 1f       	adc	r27, r27
    21b8:	66 1f       	adc	r22, r22
    21ba:	77 1f       	adc	r23, r23
    21bc:	88 1f       	adc	r24, r24
    21be:	91 50       	subi	r25, 0x01	; 1
    21c0:	50 40       	sbci	r21, 0x00	; 0
    21c2:	a9 f7       	brne	.-22     	; 0x21ae <__mulsf3_pse+0x64>
    21c4:	9e 3f       	cpi	r25, 0xFE	; 254
    21c6:	51 05       	cpc	r21, r1
    21c8:	70 f0       	brcs	.+28     	; 0x21e6 <__mulsf3_pse+0x9c>
    21ca:	60 cf       	rjmp	.-320    	; 0x208c <__fp_inf>
    21cc:	aa cf       	rjmp	.-172    	; 0x2122 <__fp_szero>
    21ce:	5f 3f       	cpi	r21, 0xFF	; 255
    21d0:	ec f3       	brlt	.-6      	; 0x21cc <__mulsf3_pse+0x82>
    21d2:	98 3e       	cpi	r25, 0xE8	; 232
    21d4:	dc f3       	brlt	.-10     	; 0x21cc <__mulsf3_pse+0x82>
    21d6:	86 95       	lsr	r24
    21d8:	77 95       	ror	r23
    21da:	67 95       	ror	r22
    21dc:	b7 95       	ror	r27
    21de:	f7 95       	ror	r31
    21e0:	e7 95       	ror	r30
    21e2:	9f 5f       	subi	r25, 0xFF	; 255
    21e4:	c1 f7       	brne	.-16     	; 0x21d6 <__mulsf3_pse+0x8c>
    21e6:	fe 2b       	or	r31, r30
    21e8:	88 0f       	add	r24, r24
    21ea:	91 1d       	adc	r25, r1
    21ec:	96 95       	lsr	r25
    21ee:	87 95       	ror	r24
    21f0:	97 f9       	bld	r25, 7
    21f2:	08 95       	ret

000021f4 <vfprintf>:
    21f4:	2f 92       	push	r2
    21f6:	3f 92       	push	r3
    21f8:	4f 92       	push	r4
    21fa:	5f 92       	push	r5
    21fc:	6f 92       	push	r6
    21fe:	7f 92       	push	r7
    2200:	8f 92       	push	r8
    2202:	9f 92       	push	r9
    2204:	af 92       	push	r10
    2206:	bf 92       	push	r11
    2208:	cf 92       	push	r12
    220a:	df 92       	push	r13
    220c:	ef 92       	push	r14
    220e:	ff 92       	push	r15
    2210:	0f 93       	push	r16
    2212:	1f 93       	push	r17
    2214:	cf 93       	push	r28
    2216:	df 93       	push	r29
    2218:	cd b7       	in	r28, 0x3d	; 61
    221a:	de b7       	in	r29, 0x3e	; 62
    221c:	60 97       	sbiw	r28, 0x10	; 16
    221e:	0f b6       	in	r0, 0x3f	; 63
    2220:	f8 94       	cli
    2222:	de bf       	out	0x3e, r29	; 62
    2224:	0f be       	out	0x3f, r0	; 63
    2226:	cd bf       	out	0x3d, r28	; 61
    2228:	7c 01       	movw	r14, r24
    222a:	1b 01       	movw	r2, r22
    222c:	6a 01       	movw	r12, r20
    222e:	fc 01       	movw	r30, r24
    2230:	17 82       	std	Z+7, r1	; 0x07
    2232:	16 82       	std	Z+6, r1	; 0x06
    2234:	83 81       	ldd	r24, Z+3	; 0x03
    2236:	81 ff       	sbrs	r24, 1
    2238:	2a c3       	rjmp	.+1620   	; 0x288e <__stack+0x68f>
    223a:	9e 01       	movw	r18, r28
    223c:	2f 5f       	subi	r18, 0xFF	; 255
    223e:	3f 4f       	sbci	r19, 0xFF	; 255
    2240:	39 01       	movw	r6, r18
    2242:	f7 01       	movw	r30, r14
    2244:	93 81       	ldd	r25, Z+3	; 0x03
    2246:	f1 01       	movw	r30, r2
    2248:	93 fd       	sbrc	r25, 3
    224a:	85 91       	lpm	r24, Z+
    224c:	93 ff       	sbrs	r25, 3
    224e:	81 91       	ld	r24, Z+
    2250:	1f 01       	movw	r2, r30
    2252:	88 23       	and	r24, r24
    2254:	09 f4       	brne	.+2      	; 0x2258 <__stack+0x59>
    2256:	17 c3       	rjmp	.+1582   	; 0x2886 <__stack+0x687>
    2258:	85 32       	cpi	r24, 0x25	; 37
    225a:	39 f4       	brne	.+14     	; 0x226a <__stack+0x6b>
    225c:	93 fd       	sbrc	r25, 3
    225e:	85 91       	lpm	r24, Z+
    2260:	93 ff       	sbrs	r25, 3
    2262:	81 91       	ld	r24, Z+
    2264:	1f 01       	movw	r2, r30
    2266:	85 32       	cpi	r24, 0x25	; 37
    2268:	31 f4       	brne	.+12     	; 0x2276 <__stack+0x77>
    226a:	b7 01       	movw	r22, r14
    226c:	90 e0       	ldi	r25, 0x00	; 0
    226e:	c8 d4       	rcall	.+2448   	; 0x2c00 <fputc>
    2270:	56 01       	movw	r10, r12
    2272:	65 01       	movw	r12, r10
    2274:	e6 cf       	rjmp	.-52     	; 0x2242 <__stack+0x43>
    2276:	10 e0       	ldi	r17, 0x00	; 0
    2278:	51 2c       	mov	r5, r1
    227a:	91 2c       	mov	r9, r1
    227c:	ff e1       	ldi	r31, 0x1F	; 31
    227e:	f9 15       	cp	r31, r9
    2280:	d8 f0       	brcs	.+54     	; 0x22b8 <__stack+0xb9>
    2282:	8b 32       	cpi	r24, 0x2B	; 43
    2284:	79 f0       	breq	.+30     	; 0x22a4 <__stack+0xa5>
    2286:	38 f4       	brcc	.+14     	; 0x2296 <__stack+0x97>
    2288:	80 32       	cpi	r24, 0x20	; 32
    228a:	79 f0       	breq	.+30     	; 0x22aa <__stack+0xab>
    228c:	83 32       	cpi	r24, 0x23	; 35
    228e:	a1 f4       	brne	.+40     	; 0x22b8 <__stack+0xb9>
    2290:	f9 2d       	mov	r31, r9
    2292:	f0 61       	ori	r31, 0x10	; 16
    2294:	2e c0       	rjmp	.+92     	; 0x22f2 <__stack+0xf3>
    2296:	8d 32       	cpi	r24, 0x2D	; 45
    2298:	61 f0       	breq	.+24     	; 0x22b2 <__stack+0xb3>
    229a:	80 33       	cpi	r24, 0x30	; 48
    229c:	69 f4       	brne	.+26     	; 0x22b8 <__stack+0xb9>
    229e:	29 2d       	mov	r18, r9
    22a0:	21 60       	ori	r18, 0x01	; 1
    22a2:	2d c0       	rjmp	.+90     	; 0x22fe <__stack+0xff>
    22a4:	39 2d       	mov	r19, r9
    22a6:	32 60       	ori	r19, 0x02	; 2
    22a8:	93 2e       	mov	r9, r19
    22aa:	89 2d       	mov	r24, r9
    22ac:	84 60       	ori	r24, 0x04	; 4
    22ae:	98 2e       	mov	r9, r24
    22b0:	2a c0       	rjmp	.+84     	; 0x2306 <__stack+0x107>
    22b2:	e9 2d       	mov	r30, r9
    22b4:	e8 60       	ori	r30, 0x08	; 8
    22b6:	15 c0       	rjmp	.+42     	; 0x22e2 <__stack+0xe3>
    22b8:	97 fc       	sbrc	r9, 7
    22ba:	2d c0       	rjmp	.+90     	; 0x2316 <__stack+0x117>
    22bc:	20 ed       	ldi	r18, 0xD0	; 208
    22be:	28 0f       	add	r18, r24
    22c0:	2a 30       	cpi	r18, 0x0A	; 10
    22c2:	88 f4       	brcc	.+34     	; 0x22e6 <__stack+0xe7>
    22c4:	96 fe       	sbrs	r9, 6
    22c6:	06 c0       	rjmp	.+12     	; 0x22d4 <__stack+0xd5>
    22c8:	3a e0       	ldi	r19, 0x0A	; 10
    22ca:	13 9f       	mul	r17, r19
    22cc:	20 0d       	add	r18, r0
    22ce:	11 24       	eor	r1, r1
    22d0:	12 2f       	mov	r17, r18
    22d2:	19 c0       	rjmp	.+50     	; 0x2306 <__stack+0x107>
    22d4:	8a e0       	ldi	r24, 0x0A	; 10
    22d6:	58 9e       	mul	r5, r24
    22d8:	20 0d       	add	r18, r0
    22da:	11 24       	eor	r1, r1
    22dc:	52 2e       	mov	r5, r18
    22de:	e9 2d       	mov	r30, r9
    22e0:	e0 62       	ori	r30, 0x20	; 32
    22e2:	9e 2e       	mov	r9, r30
    22e4:	10 c0       	rjmp	.+32     	; 0x2306 <__stack+0x107>
    22e6:	8e 32       	cpi	r24, 0x2E	; 46
    22e8:	31 f4       	brne	.+12     	; 0x22f6 <__stack+0xf7>
    22ea:	96 fc       	sbrc	r9, 6
    22ec:	cc c2       	rjmp	.+1432   	; 0x2886 <__stack+0x687>
    22ee:	f9 2d       	mov	r31, r9
    22f0:	f0 64       	ori	r31, 0x40	; 64
    22f2:	9f 2e       	mov	r9, r31
    22f4:	08 c0       	rjmp	.+16     	; 0x2306 <__stack+0x107>
    22f6:	8c 36       	cpi	r24, 0x6C	; 108
    22f8:	21 f4       	brne	.+8      	; 0x2302 <__stack+0x103>
    22fa:	29 2d       	mov	r18, r9
    22fc:	20 68       	ori	r18, 0x80	; 128
    22fe:	92 2e       	mov	r9, r18
    2300:	02 c0       	rjmp	.+4      	; 0x2306 <__stack+0x107>
    2302:	88 36       	cpi	r24, 0x68	; 104
    2304:	41 f4       	brne	.+16     	; 0x2316 <__stack+0x117>
    2306:	f1 01       	movw	r30, r2
    2308:	93 fd       	sbrc	r25, 3
    230a:	85 91       	lpm	r24, Z+
    230c:	93 ff       	sbrs	r25, 3
    230e:	81 91       	ld	r24, Z+
    2310:	1f 01       	movw	r2, r30
    2312:	81 11       	cpse	r24, r1
    2314:	b3 cf       	rjmp	.-154    	; 0x227c <__stack+0x7d>
    2316:	9b eb       	ldi	r25, 0xBB	; 187
    2318:	98 0f       	add	r25, r24
    231a:	93 30       	cpi	r25, 0x03	; 3
    231c:	20 f4       	brcc	.+8      	; 0x2326 <__stack+0x127>
    231e:	99 2d       	mov	r25, r9
    2320:	90 61       	ori	r25, 0x10	; 16
    2322:	80 5e       	subi	r24, 0xE0	; 224
    2324:	07 c0       	rjmp	.+14     	; 0x2334 <__stack+0x135>
    2326:	9b e9       	ldi	r25, 0x9B	; 155
    2328:	98 0f       	add	r25, r24
    232a:	93 30       	cpi	r25, 0x03	; 3
    232c:	08 f0       	brcs	.+2      	; 0x2330 <__stack+0x131>
    232e:	59 c1       	rjmp	.+690    	; 0x25e2 <__stack+0x3e3>
    2330:	99 2d       	mov	r25, r9
    2332:	9f 7e       	andi	r25, 0xEF	; 239
    2334:	96 ff       	sbrs	r25, 6
    2336:	16 e0       	ldi	r17, 0x06	; 6
    2338:	9f 73       	andi	r25, 0x3F	; 63
    233a:	99 2e       	mov	r9, r25
    233c:	85 36       	cpi	r24, 0x65	; 101
    233e:	19 f4       	brne	.+6      	; 0x2346 <__stack+0x147>
    2340:	90 64       	ori	r25, 0x40	; 64
    2342:	99 2e       	mov	r9, r25
    2344:	08 c0       	rjmp	.+16     	; 0x2356 <__stack+0x157>
    2346:	86 36       	cpi	r24, 0x66	; 102
    2348:	21 f4       	brne	.+8      	; 0x2352 <__stack+0x153>
    234a:	39 2f       	mov	r19, r25
    234c:	30 68       	ori	r19, 0x80	; 128
    234e:	93 2e       	mov	r9, r19
    2350:	02 c0       	rjmp	.+4      	; 0x2356 <__stack+0x157>
    2352:	11 11       	cpse	r17, r1
    2354:	11 50       	subi	r17, 0x01	; 1
    2356:	97 fe       	sbrs	r9, 7
    2358:	07 c0       	rjmp	.+14     	; 0x2368 <__stack+0x169>
    235a:	1c 33       	cpi	r17, 0x3C	; 60
    235c:	50 f4       	brcc	.+20     	; 0x2372 <__stack+0x173>
    235e:	44 24       	eor	r4, r4
    2360:	43 94       	inc	r4
    2362:	41 0e       	add	r4, r17
    2364:	27 e0       	ldi	r18, 0x07	; 7
    2366:	0b c0       	rjmp	.+22     	; 0x237e <__stack+0x17f>
    2368:	18 30       	cpi	r17, 0x08	; 8
    236a:	38 f0       	brcs	.+14     	; 0x237a <__stack+0x17b>
    236c:	27 e0       	ldi	r18, 0x07	; 7
    236e:	17 e0       	ldi	r17, 0x07	; 7
    2370:	05 c0       	rjmp	.+10     	; 0x237c <__stack+0x17d>
    2372:	27 e0       	ldi	r18, 0x07	; 7
    2374:	9c e3       	ldi	r25, 0x3C	; 60
    2376:	49 2e       	mov	r4, r25
    2378:	02 c0       	rjmp	.+4      	; 0x237e <__stack+0x17f>
    237a:	21 2f       	mov	r18, r17
    237c:	41 2c       	mov	r4, r1
    237e:	56 01       	movw	r10, r12
    2380:	84 e0       	ldi	r24, 0x04	; 4
    2382:	a8 0e       	add	r10, r24
    2384:	b1 1c       	adc	r11, r1
    2386:	f6 01       	movw	r30, r12
    2388:	60 81       	ld	r22, Z
    238a:	71 81       	ldd	r23, Z+1	; 0x01
    238c:	82 81       	ldd	r24, Z+2	; 0x02
    238e:	93 81       	ldd	r25, Z+3	; 0x03
    2390:	04 2d       	mov	r16, r4
    2392:	a3 01       	movw	r20, r6
    2394:	2a d3       	rcall	.+1620   	; 0x29ea <__ftoa_engine>
    2396:	6c 01       	movw	r12, r24
    2398:	f9 81       	ldd	r31, Y+1	; 0x01
    239a:	fc 87       	std	Y+12, r31	; 0x0c
    239c:	f0 ff       	sbrs	r31, 0
    239e:	02 c0       	rjmp	.+4      	; 0x23a4 <__stack+0x1a5>
    23a0:	f3 ff       	sbrs	r31, 3
    23a2:	06 c0       	rjmp	.+12     	; 0x23b0 <__stack+0x1b1>
    23a4:	91 fc       	sbrc	r9, 1
    23a6:	06 c0       	rjmp	.+12     	; 0x23b4 <__stack+0x1b5>
    23a8:	92 fe       	sbrs	r9, 2
    23aa:	06 c0       	rjmp	.+12     	; 0x23b8 <__stack+0x1b9>
    23ac:	00 e2       	ldi	r16, 0x20	; 32
    23ae:	05 c0       	rjmp	.+10     	; 0x23ba <__stack+0x1bb>
    23b0:	0d e2       	ldi	r16, 0x2D	; 45
    23b2:	03 c0       	rjmp	.+6      	; 0x23ba <__stack+0x1bb>
    23b4:	0b e2       	ldi	r16, 0x2B	; 43
    23b6:	01 c0       	rjmp	.+2      	; 0x23ba <__stack+0x1bb>
    23b8:	00 e0       	ldi	r16, 0x00	; 0
    23ba:	8c 85       	ldd	r24, Y+12	; 0x0c
    23bc:	8c 70       	andi	r24, 0x0C	; 12
    23be:	19 f0       	breq	.+6      	; 0x23c6 <__stack+0x1c7>
    23c0:	01 11       	cpse	r16, r1
    23c2:	43 c2       	rjmp	.+1158   	; 0x284a <__stack+0x64b>
    23c4:	80 c2       	rjmp	.+1280   	; 0x28c6 <__stack+0x6c7>
    23c6:	97 fe       	sbrs	r9, 7
    23c8:	10 c0       	rjmp	.+32     	; 0x23ea <__stack+0x1eb>
    23ca:	4c 0c       	add	r4, r12
    23cc:	fc 85       	ldd	r31, Y+12	; 0x0c
    23ce:	f4 ff       	sbrs	r31, 4
    23d0:	04 c0       	rjmp	.+8      	; 0x23da <__stack+0x1db>
    23d2:	8a 81       	ldd	r24, Y+2	; 0x02
    23d4:	81 33       	cpi	r24, 0x31	; 49
    23d6:	09 f4       	brne	.+2      	; 0x23da <__stack+0x1db>
    23d8:	4a 94       	dec	r4
    23da:	14 14       	cp	r1, r4
    23dc:	74 f5       	brge	.+92     	; 0x243a <__stack+0x23b>
    23de:	28 e0       	ldi	r18, 0x08	; 8
    23e0:	24 15       	cp	r18, r4
    23e2:	78 f5       	brcc	.+94     	; 0x2442 <__stack+0x243>
    23e4:	88 e0       	ldi	r24, 0x08	; 8
    23e6:	48 2e       	mov	r4, r24
    23e8:	2c c0       	rjmp	.+88     	; 0x2442 <__stack+0x243>
    23ea:	96 fc       	sbrc	r9, 6
    23ec:	2a c0       	rjmp	.+84     	; 0x2442 <__stack+0x243>
    23ee:	81 2f       	mov	r24, r17
    23f0:	90 e0       	ldi	r25, 0x00	; 0
    23f2:	8c 15       	cp	r24, r12
    23f4:	9d 05       	cpc	r25, r13
    23f6:	9c f0       	brlt	.+38     	; 0x241e <__stack+0x21f>
    23f8:	3c ef       	ldi	r19, 0xFC	; 252
    23fa:	c3 16       	cp	r12, r19
    23fc:	3f ef       	ldi	r19, 0xFF	; 255
    23fe:	d3 06       	cpc	r13, r19
    2400:	74 f0       	brlt	.+28     	; 0x241e <__stack+0x21f>
    2402:	89 2d       	mov	r24, r9
    2404:	80 68       	ori	r24, 0x80	; 128
    2406:	98 2e       	mov	r9, r24
    2408:	0a c0       	rjmp	.+20     	; 0x241e <__stack+0x21f>
    240a:	e2 e0       	ldi	r30, 0x02	; 2
    240c:	f0 e0       	ldi	r31, 0x00	; 0
    240e:	ec 0f       	add	r30, r28
    2410:	fd 1f       	adc	r31, r29
    2412:	e1 0f       	add	r30, r17
    2414:	f1 1d       	adc	r31, r1
    2416:	80 81       	ld	r24, Z
    2418:	80 33       	cpi	r24, 0x30	; 48
    241a:	19 f4       	brne	.+6      	; 0x2422 <__stack+0x223>
    241c:	11 50       	subi	r17, 0x01	; 1
    241e:	11 11       	cpse	r17, r1
    2420:	f4 cf       	rjmp	.-24     	; 0x240a <__stack+0x20b>
    2422:	97 fe       	sbrs	r9, 7
    2424:	0e c0       	rjmp	.+28     	; 0x2442 <__stack+0x243>
    2426:	44 24       	eor	r4, r4
    2428:	43 94       	inc	r4
    242a:	41 0e       	add	r4, r17
    242c:	81 2f       	mov	r24, r17
    242e:	90 e0       	ldi	r25, 0x00	; 0
    2430:	c8 16       	cp	r12, r24
    2432:	d9 06       	cpc	r13, r25
    2434:	2c f4       	brge	.+10     	; 0x2440 <__stack+0x241>
    2436:	1c 19       	sub	r17, r12
    2438:	04 c0       	rjmp	.+8      	; 0x2442 <__stack+0x243>
    243a:	44 24       	eor	r4, r4
    243c:	43 94       	inc	r4
    243e:	01 c0       	rjmp	.+2      	; 0x2442 <__stack+0x243>
    2440:	10 e0       	ldi	r17, 0x00	; 0
    2442:	97 fe       	sbrs	r9, 7
    2444:	06 c0       	rjmp	.+12     	; 0x2452 <__stack+0x253>
    2446:	1c 14       	cp	r1, r12
    2448:	1d 04       	cpc	r1, r13
    244a:	34 f4       	brge	.+12     	; 0x2458 <__stack+0x259>
    244c:	c6 01       	movw	r24, r12
    244e:	01 96       	adiw	r24, 0x01	; 1
    2450:	05 c0       	rjmp	.+10     	; 0x245c <__stack+0x25d>
    2452:	85 e0       	ldi	r24, 0x05	; 5
    2454:	90 e0       	ldi	r25, 0x00	; 0
    2456:	02 c0       	rjmp	.+4      	; 0x245c <__stack+0x25d>
    2458:	81 e0       	ldi	r24, 0x01	; 1
    245a:	90 e0       	ldi	r25, 0x00	; 0
    245c:	01 11       	cpse	r16, r1
    245e:	01 96       	adiw	r24, 0x01	; 1
    2460:	11 23       	and	r17, r17
    2462:	31 f0       	breq	.+12     	; 0x2470 <__stack+0x271>
    2464:	21 2f       	mov	r18, r17
    2466:	30 e0       	ldi	r19, 0x00	; 0
    2468:	2f 5f       	subi	r18, 0xFF	; 255
    246a:	3f 4f       	sbci	r19, 0xFF	; 255
    246c:	82 0f       	add	r24, r18
    246e:	93 1f       	adc	r25, r19
    2470:	25 2d       	mov	r18, r5
    2472:	30 e0       	ldi	r19, 0x00	; 0
    2474:	82 17       	cp	r24, r18
    2476:	93 07       	cpc	r25, r19
    2478:	14 f4       	brge	.+4      	; 0x247e <__stack+0x27f>
    247a:	58 1a       	sub	r5, r24
    247c:	01 c0       	rjmp	.+2      	; 0x2480 <__stack+0x281>
    247e:	51 2c       	mov	r5, r1
    2480:	89 2d       	mov	r24, r9
    2482:	89 70       	andi	r24, 0x09	; 9
    2484:	41 f4       	brne	.+16     	; 0x2496 <__stack+0x297>
    2486:	55 20       	and	r5, r5
    2488:	31 f0       	breq	.+12     	; 0x2496 <__stack+0x297>
    248a:	b7 01       	movw	r22, r14
    248c:	80 e2       	ldi	r24, 0x20	; 32
    248e:	90 e0       	ldi	r25, 0x00	; 0
    2490:	b7 d3       	rcall	.+1902   	; 0x2c00 <fputc>
    2492:	5a 94       	dec	r5
    2494:	f8 cf       	rjmp	.-16     	; 0x2486 <__stack+0x287>
    2496:	00 23       	and	r16, r16
    2498:	21 f0       	breq	.+8      	; 0x24a2 <__stack+0x2a3>
    249a:	b7 01       	movw	r22, r14
    249c:	80 2f       	mov	r24, r16
    249e:	90 e0       	ldi	r25, 0x00	; 0
    24a0:	af d3       	rcall	.+1886   	; 0x2c00 <fputc>
    24a2:	93 fc       	sbrc	r9, 3
    24a4:	08 c0       	rjmp	.+16     	; 0x24b6 <__stack+0x2b7>
    24a6:	55 20       	and	r5, r5
    24a8:	31 f0       	breq	.+12     	; 0x24b6 <__stack+0x2b7>
    24aa:	b7 01       	movw	r22, r14
    24ac:	80 e3       	ldi	r24, 0x30	; 48
    24ae:	90 e0       	ldi	r25, 0x00	; 0
    24b0:	a7 d3       	rcall	.+1870   	; 0x2c00 <fputc>
    24b2:	5a 94       	dec	r5
    24b4:	f8 cf       	rjmp	.-16     	; 0x24a6 <__stack+0x2a7>
    24b6:	97 fe       	sbrs	r9, 7
    24b8:	4a c0       	rjmp	.+148    	; 0x254e <__stack+0x34f>
    24ba:	46 01       	movw	r8, r12
    24bc:	d7 fe       	sbrs	r13, 7
    24be:	02 c0       	rjmp	.+4      	; 0x24c4 <__stack+0x2c5>
    24c0:	81 2c       	mov	r8, r1
    24c2:	91 2c       	mov	r9, r1
    24c4:	c6 01       	movw	r24, r12
    24c6:	88 19       	sub	r24, r8
    24c8:	99 09       	sbc	r25, r9
    24ca:	f3 01       	movw	r30, r6
    24cc:	e8 0f       	add	r30, r24
    24ce:	f9 1f       	adc	r31, r25
    24d0:	fe 87       	std	Y+14, r31	; 0x0e
    24d2:	ed 87       	std	Y+13, r30	; 0x0d
    24d4:	96 01       	movw	r18, r12
    24d6:	24 19       	sub	r18, r4
    24d8:	31 09       	sbc	r19, r1
    24da:	38 8b       	std	Y+16, r19	; 0x10
    24dc:	2f 87       	std	Y+15, r18	; 0x0f
    24de:	01 2f       	mov	r16, r17
    24e0:	10 e0       	ldi	r17, 0x00	; 0
    24e2:	11 95       	neg	r17
    24e4:	01 95       	neg	r16
    24e6:	11 09       	sbc	r17, r1
    24e8:	3f ef       	ldi	r19, 0xFF	; 255
    24ea:	83 16       	cp	r8, r19
    24ec:	93 06       	cpc	r9, r19
    24ee:	21 f4       	brne	.+8      	; 0x24f8 <__stack+0x2f9>
    24f0:	b7 01       	movw	r22, r14
    24f2:	8e e2       	ldi	r24, 0x2E	; 46
    24f4:	90 e0       	ldi	r25, 0x00	; 0
    24f6:	84 d3       	rcall	.+1800   	; 0x2c00 <fputc>
    24f8:	c8 14       	cp	r12, r8
    24fa:	d9 04       	cpc	r13, r9
    24fc:	4c f0       	brlt	.+18     	; 0x2510 <__stack+0x311>
    24fe:	8f 85       	ldd	r24, Y+15	; 0x0f
    2500:	98 89       	ldd	r25, Y+16	; 0x10
    2502:	88 15       	cp	r24, r8
    2504:	99 05       	cpc	r25, r9
    2506:	24 f4       	brge	.+8      	; 0x2510 <__stack+0x311>
    2508:	ed 85       	ldd	r30, Y+13	; 0x0d
    250a:	fe 85       	ldd	r31, Y+14	; 0x0e
    250c:	81 81       	ldd	r24, Z+1	; 0x01
    250e:	01 c0       	rjmp	.+2      	; 0x2512 <__stack+0x313>
    2510:	80 e3       	ldi	r24, 0x30	; 48
    2512:	f1 e0       	ldi	r31, 0x01	; 1
    2514:	8f 1a       	sub	r8, r31
    2516:	91 08       	sbc	r9, r1
    2518:	2d 85       	ldd	r18, Y+13	; 0x0d
    251a:	3e 85       	ldd	r19, Y+14	; 0x0e
    251c:	2f 5f       	subi	r18, 0xFF	; 255
    251e:	3f 4f       	sbci	r19, 0xFF	; 255
    2520:	3e 87       	std	Y+14, r19	; 0x0e
    2522:	2d 87       	std	Y+13, r18	; 0x0d
    2524:	80 16       	cp	r8, r16
    2526:	91 06       	cpc	r9, r17
    2528:	24 f0       	brlt	.+8      	; 0x2532 <__stack+0x333>
    252a:	b7 01       	movw	r22, r14
    252c:	90 e0       	ldi	r25, 0x00	; 0
    252e:	68 d3       	rcall	.+1744   	; 0x2c00 <fputc>
    2530:	db cf       	rjmp	.-74     	; 0x24e8 <__stack+0x2e9>
    2532:	c8 14       	cp	r12, r8
    2534:	d9 04       	cpc	r13, r9
    2536:	41 f4       	brne	.+16     	; 0x2548 <__stack+0x349>
    2538:	9a 81       	ldd	r25, Y+2	; 0x02
    253a:	96 33       	cpi	r25, 0x36	; 54
    253c:	20 f4       	brcc	.+8      	; 0x2546 <__stack+0x347>
    253e:	95 33       	cpi	r25, 0x35	; 53
    2540:	19 f4       	brne	.+6      	; 0x2548 <__stack+0x349>
    2542:	3c 85       	ldd	r19, Y+12	; 0x0c
    2544:	34 ff       	sbrs	r19, 4
    2546:	81 e3       	ldi	r24, 0x31	; 49
    2548:	b7 01       	movw	r22, r14
    254a:	90 e0       	ldi	r25, 0x00	; 0
    254c:	48 c0       	rjmp	.+144    	; 0x25de <__stack+0x3df>
    254e:	8a 81       	ldd	r24, Y+2	; 0x02
    2550:	81 33       	cpi	r24, 0x31	; 49
    2552:	19 f0       	breq	.+6      	; 0x255a <__stack+0x35b>
    2554:	9c 85       	ldd	r25, Y+12	; 0x0c
    2556:	9f 7e       	andi	r25, 0xEF	; 239
    2558:	9c 87       	std	Y+12, r25	; 0x0c
    255a:	b7 01       	movw	r22, r14
    255c:	90 e0       	ldi	r25, 0x00	; 0
    255e:	50 d3       	rcall	.+1696   	; 0x2c00 <fputc>
    2560:	11 11       	cpse	r17, r1
    2562:	05 c0       	rjmp	.+10     	; 0x256e <__stack+0x36f>
    2564:	94 fc       	sbrc	r9, 4
    2566:	16 c0       	rjmp	.+44     	; 0x2594 <__stack+0x395>
    2568:	85 e6       	ldi	r24, 0x65	; 101
    256a:	90 e0       	ldi	r25, 0x00	; 0
    256c:	15 c0       	rjmp	.+42     	; 0x2598 <__stack+0x399>
    256e:	b7 01       	movw	r22, r14
    2570:	8e e2       	ldi	r24, 0x2E	; 46
    2572:	90 e0       	ldi	r25, 0x00	; 0
    2574:	45 d3       	rcall	.+1674   	; 0x2c00 <fputc>
    2576:	1e 5f       	subi	r17, 0xFE	; 254
    2578:	82 e0       	ldi	r24, 0x02	; 2
    257a:	01 e0       	ldi	r16, 0x01	; 1
    257c:	08 0f       	add	r16, r24
    257e:	f3 01       	movw	r30, r6
    2580:	e8 0f       	add	r30, r24
    2582:	f1 1d       	adc	r31, r1
    2584:	80 81       	ld	r24, Z
    2586:	b7 01       	movw	r22, r14
    2588:	90 e0       	ldi	r25, 0x00	; 0
    258a:	3a d3       	rcall	.+1652   	; 0x2c00 <fputc>
    258c:	80 2f       	mov	r24, r16
    258e:	01 13       	cpse	r16, r17
    2590:	f4 cf       	rjmp	.-24     	; 0x257a <__stack+0x37b>
    2592:	e8 cf       	rjmp	.-48     	; 0x2564 <__stack+0x365>
    2594:	85 e4       	ldi	r24, 0x45	; 69
    2596:	90 e0       	ldi	r25, 0x00	; 0
    2598:	b7 01       	movw	r22, r14
    259a:	32 d3       	rcall	.+1636   	; 0x2c00 <fputc>
    259c:	d7 fc       	sbrc	r13, 7
    259e:	06 c0       	rjmp	.+12     	; 0x25ac <__stack+0x3ad>
    25a0:	c1 14       	cp	r12, r1
    25a2:	d1 04       	cpc	r13, r1
    25a4:	41 f4       	brne	.+16     	; 0x25b6 <__stack+0x3b7>
    25a6:	ec 85       	ldd	r30, Y+12	; 0x0c
    25a8:	e4 ff       	sbrs	r30, 4
    25aa:	05 c0       	rjmp	.+10     	; 0x25b6 <__stack+0x3b7>
    25ac:	d1 94       	neg	r13
    25ae:	c1 94       	neg	r12
    25b0:	d1 08       	sbc	r13, r1
    25b2:	8d e2       	ldi	r24, 0x2D	; 45
    25b4:	01 c0       	rjmp	.+2      	; 0x25b8 <__stack+0x3b9>
    25b6:	8b e2       	ldi	r24, 0x2B	; 43
    25b8:	b7 01       	movw	r22, r14
    25ba:	90 e0       	ldi	r25, 0x00	; 0
    25bc:	21 d3       	rcall	.+1602   	; 0x2c00 <fputc>
    25be:	80 e3       	ldi	r24, 0x30	; 48
    25c0:	2a e0       	ldi	r18, 0x0A	; 10
    25c2:	c2 16       	cp	r12, r18
    25c4:	d1 04       	cpc	r13, r1
    25c6:	2c f0       	brlt	.+10     	; 0x25d2 <__stack+0x3d3>
    25c8:	8f 5f       	subi	r24, 0xFF	; 255
    25ca:	fa e0       	ldi	r31, 0x0A	; 10
    25cc:	cf 1a       	sub	r12, r31
    25ce:	d1 08       	sbc	r13, r1
    25d0:	f7 cf       	rjmp	.-18     	; 0x25c0 <__stack+0x3c1>
    25d2:	b7 01       	movw	r22, r14
    25d4:	90 e0       	ldi	r25, 0x00	; 0
    25d6:	14 d3       	rcall	.+1576   	; 0x2c00 <fputc>
    25d8:	b7 01       	movw	r22, r14
    25da:	c6 01       	movw	r24, r12
    25dc:	c0 96       	adiw	r24, 0x30	; 48
    25de:	10 d3       	rcall	.+1568   	; 0x2c00 <fputc>
    25e0:	49 c1       	rjmp	.+658    	; 0x2874 <__stack+0x675>
    25e2:	83 36       	cpi	r24, 0x63	; 99
    25e4:	31 f0       	breq	.+12     	; 0x25f2 <__stack+0x3f3>
    25e6:	83 37       	cpi	r24, 0x73	; 115
    25e8:	79 f0       	breq	.+30     	; 0x2608 <__stack+0x409>
    25ea:	83 35       	cpi	r24, 0x53	; 83
    25ec:	09 f0       	breq	.+2      	; 0x25f0 <__stack+0x3f1>
    25ee:	52 c0       	rjmp	.+164    	; 0x2694 <__stack+0x495>
    25f0:	1f c0       	rjmp	.+62     	; 0x2630 <__stack+0x431>
    25f2:	56 01       	movw	r10, r12
    25f4:	32 e0       	ldi	r19, 0x02	; 2
    25f6:	a3 0e       	add	r10, r19
    25f8:	b1 1c       	adc	r11, r1
    25fa:	f6 01       	movw	r30, r12
    25fc:	80 81       	ld	r24, Z
    25fe:	89 83       	std	Y+1, r24	; 0x01
    2600:	01 e0       	ldi	r16, 0x01	; 1
    2602:	10 e0       	ldi	r17, 0x00	; 0
    2604:	63 01       	movw	r12, r6
    2606:	11 c0       	rjmp	.+34     	; 0x262a <__stack+0x42b>
    2608:	56 01       	movw	r10, r12
    260a:	f2 e0       	ldi	r31, 0x02	; 2
    260c:	af 0e       	add	r10, r31
    260e:	b1 1c       	adc	r11, r1
    2610:	f6 01       	movw	r30, r12
    2612:	c0 80       	ld	r12, Z
    2614:	d1 80       	ldd	r13, Z+1	; 0x01
    2616:	96 fe       	sbrs	r9, 6
    2618:	03 c0       	rjmp	.+6      	; 0x2620 <__stack+0x421>
    261a:	61 2f       	mov	r22, r17
    261c:	70 e0       	ldi	r23, 0x00	; 0
    261e:	02 c0       	rjmp	.+4      	; 0x2624 <__stack+0x425>
    2620:	6f ef       	ldi	r22, 0xFF	; 255
    2622:	7f ef       	ldi	r23, 0xFF	; 255
    2624:	c6 01       	movw	r24, r12
    2626:	c4 d2       	rcall	.+1416   	; 0x2bb0 <strnlen>
    2628:	8c 01       	movw	r16, r24
    262a:	f9 2d       	mov	r31, r9
    262c:	ff 77       	andi	r31, 0x7F	; 127
    262e:	13 c0       	rjmp	.+38     	; 0x2656 <__stack+0x457>
    2630:	56 01       	movw	r10, r12
    2632:	22 e0       	ldi	r18, 0x02	; 2
    2634:	a2 0e       	add	r10, r18
    2636:	b1 1c       	adc	r11, r1
    2638:	f6 01       	movw	r30, r12
    263a:	c0 80       	ld	r12, Z
    263c:	d1 80       	ldd	r13, Z+1	; 0x01
    263e:	96 fe       	sbrs	r9, 6
    2640:	03 c0       	rjmp	.+6      	; 0x2648 <__stack+0x449>
    2642:	61 2f       	mov	r22, r17
    2644:	70 e0       	ldi	r23, 0x00	; 0
    2646:	02 c0       	rjmp	.+4      	; 0x264c <__stack+0x44d>
    2648:	6f ef       	ldi	r22, 0xFF	; 255
    264a:	7f ef       	ldi	r23, 0xFF	; 255
    264c:	c6 01       	movw	r24, r12
    264e:	a5 d2       	rcall	.+1354   	; 0x2b9a <strnlen_P>
    2650:	8c 01       	movw	r16, r24
    2652:	f9 2d       	mov	r31, r9
    2654:	f0 68       	ori	r31, 0x80	; 128
    2656:	9f 2e       	mov	r9, r31
    2658:	f3 fd       	sbrc	r31, 3
    265a:	18 c0       	rjmp	.+48     	; 0x268c <__stack+0x48d>
    265c:	85 2d       	mov	r24, r5
    265e:	90 e0       	ldi	r25, 0x00	; 0
    2660:	08 17       	cp	r16, r24
    2662:	19 07       	cpc	r17, r25
    2664:	98 f4       	brcc	.+38     	; 0x268c <__stack+0x48d>
    2666:	b7 01       	movw	r22, r14
    2668:	80 e2       	ldi	r24, 0x20	; 32
    266a:	90 e0       	ldi	r25, 0x00	; 0
    266c:	c9 d2       	rcall	.+1426   	; 0x2c00 <fputc>
    266e:	5a 94       	dec	r5
    2670:	f5 cf       	rjmp	.-22     	; 0x265c <__stack+0x45d>
    2672:	f6 01       	movw	r30, r12
    2674:	97 fc       	sbrc	r9, 7
    2676:	85 91       	lpm	r24, Z+
    2678:	97 fe       	sbrs	r9, 7
    267a:	81 91       	ld	r24, Z+
    267c:	6f 01       	movw	r12, r30
    267e:	b7 01       	movw	r22, r14
    2680:	90 e0       	ldi	r25, 0x00	; 0
    2682:	be d2       	rcall	.+1404   	; 0x2c00 <fputc>
    2684:	51 10       	cpse	r5, r1
    2686:	5a 94       	dec	r5
    2688:	01 50       	subi	r16, 0x01	; 1
    268a:	11 09       	sbc	r17, r1
    268c:	01 15       	cp	r16, r1
    268e:	11 05       	cpc	r17, r1
    2690:	81 f7       	brne	.-32     	; 0x2672 <__stack+0x473>
    2692:	f0 c0       	rjmp	.+480    	; 0x2874 <__stack+0x675>
    2694:	84 36       	cpi	r24, 0x64	; 100
    2696:	11 f0       	breq	.+4      	; 0x269c <__stack+0x49d>
    2698:	89 36       	cpi	r24, 0x69	; 105
    269a:	59 f5       	brne	.+86     	; 0x26f2 <__stack+0x4f3>
    269c:	56 01       	movw	r10, r12
    269e:	97 fe       	sbrs	r9, 7
    26a0:	09 c0       	rjmp	.+18     	; 0x26b4 <__stack+0x4b5>
    26a2:	24 e0       	ldi	r18, 0x04	; 4
    26a4:	a2 0e       	add	r10, r18
    26a6:	b1 1c       	adc	r11, r1
    26a8:	f6 01       	movw	r30, r12
    26aa:	60 81       	ld	r22, Z
    26ac:	71 81       	ldd	r23, Z+1	; 0x01
    26ae:	82 81       	ldd	r24, Z+2	; 0x02
    26b0:	93 81       	ldd	r25, Z+3	; 0x03
    26b2:	0a c0       	rjmp	.+20     	; 0x26c8 <__stack+0x4c9>
    26b4:	f2 e0       	ldi	r31, 0x02	; 2
    26b6:	af 0e       	add	r10, r31
    26b8:	b1 1c       	adc	r11, r1
    26ba:	f6 01       	movw	r30, r12
    26bc:	60 81       	ld	r22, Z
    26be:	71 81       	ldd	r23, Z+1	; 0x01
    26c0:	07 2e       	mov	r0, r23
    26c2:	00 0c       	add	r0, r0
    26c4:	88 0b       	sbc	r24, r24
    26c6:	99 0b       	sbc	r25, r25
    26c8:	f9 2d       	mov	r31, r9
    26ca:	ff 76       	andi	r31, 0x6F	; 111
    26cc:	9f 2e       	mov	r9, r31
    26ce:	97 ff       	sbrs	r25, 7
    26d0:	09 c0       	rjmp	.+18     	; 0x26e4 <__stack+0x4e5>
    26d2:	90 95       	com	r25
    26d4:	80 95       	com	r24
    26d6:	70 95       	com	r23
    26d8:	61 95       	neg	r22
    26da:	7f 4f       	sbci	r23, 0xFF	; 255
    26dc:	8f 4f       	sbci	r24, 0xFF	; 255
    26de:	9f 4f       	sbci	r25, 0xFF	; 255
    26e0:	f0 68       	ori	r31, 0x80	; 128
    26e2:	9f 2e       	mov	r9, r31
    26e4:	2a e0       	ldi	r18, 0x0A	; 10
    26e6:	30 e0       	ldi	r19, 0x00	; 0
    26e8:	a3 01       	movw	r20, r6
    26ea:	f4 d2       	rcall	.+1512   	; 0x2cd4 <__ultoa_invert>
    26ec:	c8 2e       	mov	r12, r24
    26ee:	c6 18       	sub	r12, r6
    26f0:	3e c0       	rjmp	.+124    	; 0x276e <__stack+0x56f>
    26f2:	09 2d       	mov	r16, r9
    26f4:	85 37       	cpi	r24, 0x75	; 117
    26f6:	21 f4       	brne	.+8      	; 0x2700 <__stack+0x501>
    26f8:	0f 7e       	andi	r16, 0xEF	; 239
    26fa:	2a e0       	ldi	r18, 0x0A	; 10
    26fc:	30 e0       	ldi	r19, 0x00	; 0
    26fe:	1d c0       	rjmp	.+58     	; 0x273a <__stack+0x53b>
    2700:	09 7f       	andi	r16, 0xF9	; 249
    2702:	8f 36       	cpi	r24, 0x6F	; 111
    2704:	91 f0       	breq	.+36     	; 0x272a <__stack+0x52b>
    2706:	18 f4       	brcc	.+6      	; 0x270e <__stack+0x50f>
    2708:	88 35       	cpi	r24, 0x58	; 88
    270a:	59 f0       	breq	.+22     	; 0x2722 <__stack+0x523>
    270c:	bc c0       	rjmp	.+376    	; 0x2886 <__stack+0x687>
    270e:	80 37       	cpi	r24, 0x70	; 112
    2710:	19 f0       	breq	.+6      	; 0x2718 <__stack+0x519>
    2712:	88 37       	cpi	r24, 0x78	; 120
    2714:	11 f0       	breq	.+4      	; 0x271a <__stack+0x51b>
    2716:	b7 c0       	rjmp	.+366    	; 0x2886 <__stack+0x687>
    2718:	00 61       	ori	r16, 0x10	; 16
    271a:	04 ff       	sbrs	r16, 4
    271c:	09 c0       	rjmp	.+18     	; 0x2730 <__stack+0x531>
    271e:	04 60       	ori	r16, 0x04	; 4
    2720:	07 c0       	rjmp	.+14     	; 0x2730 <__stack+0x531>
    2722:	94 fe       	sbrs	r9, 4
    2724:	08 c0       	rjmp	.+16     	; 0x2736 <__stack+0x537>
    2726:	06 60       	ori	r16, 0x06	; 6
    2728:	06 c0       	rjmp	.+12     	; 0x2736 <__stack+0x537>
    272a:	28 e0       	ldi	r18, 0x08	; 8
    272c:	30 e0       	ldi	r19, 0x00	; 0
    272e:	05 c0       	rjmp	.+10     	; 0x273a <__stack+0x53b>
    2730:	20 e1       	ldi	r18, 0x10	; 16
    2732:	30 e0       	ldi	r19, 0x00	; 0
    2734:	02 c0       	rjmp	.+4      	; 0x273a <__stack+0x53b>
    2736:	20 e1       	ldi	r18, 0x10	; 16
    2738:	32 e0       	ldi	r19, 0x02	; 2
    273a:	56 01       	movw	r10, r12
    273c:	07 ff       	sbrs	r16, 7
    273e:	09 c0       	rjmp	.+18     	; 0x2752 <__stack+0x553>
    2740:	84 e0       	ldi	r24, 0x04	; 4
    2742:	a8 0e       	add	r10, r24
    2744:	b1 1c       	adc	r11, r1
    2746:	f6 01       	movw	r30, r12
    2748:	60 81       	ld	r22, Z
    274a:	71 81       	ldd	r23, Z+1	; 0x01
    274c:	82 81       	ldd	r24, Z+2	; 0x02
    274e:	93 81       	ldd	r25, Z+3	; 0x03
    2750:	08 c0       	rjmp	.+16     	; 0x2762 <__stack+0x563>
    2752:	f2 e0       	ldi	r31, 0x02	; 2
    2754:	af 0e       	add	r10, r31
    2756:	b1 1c       	adc	r11, r1
    2758:	f6 01       	movw	r30, r12
    275a:	60 81       	ld	r22, Z
    275c:	71 81       	ldd	r23, Z+1	; 0x01
    275e:	80 e0       	ldi	r24, 0x00	; 0
    2760:	90 e0       	ldi	r25, 0x00	; 0
    2762:	a3 01       	movw	r20, r6
    2764:	b7 d2       	rcall	.+1390   	; 0x2cd4 <__ultoa_invert>
    2766:	c8 2e       	mov	r12, r24
    2768:	c6 18       	sub	r12, r6
    276a:	0f 77       	andi	r16, 0x7F	; 127
    276c:	90 2e       	mov	r9, r16
    276e:	96 fe       	sbrs	r9, 6
    2770:	0b c0       	rjmp	.+22     	; 0x2788 <__stack+0x589>
    2772:	09 2d       	mov	r16, r9
    2774:	0e 7f       	andi	r16, 0xFE	; 254
    2776:	c1 16       	cp	r12, r17
    2778:	50 f4       	brcc	.+20     	; 0x278e <__stack+0x58f>
    277a:	94 fe       	sbrs	r9, 4
    277c:	0a c0       	rjmp	.+20     	; 0x2792 <__stack+0x593>
    277e:	92 fc       	sbrc	r9, 2
    2780:	08 c0       	rjmp	.+16     	; 0x2792 <__stack+0x593>
    2782:	09 2d       	mov	r16, r9
    2784:	0e 7e       	andi	r16, 0xEE	; 238
    2786:	05 c0       	rjmp	.+10     	; 0x2792 <__stack+0x593>
    2788:	dc 2c       	mov	r13, r12
    278a:	09 2d       	mov	r16, r9
    278c:	03 c0       	rjmp	.+6      	; 0x2794 <__stack+0x595>
    278e:	dc 2c       	mov	r13, r12
    2790:	01 c0       	rjmp	.+2      	; 0x2794 <__stack+0x595>
    2792:	d1 2e       	mov	r13, r17
    2794:	04 ff       	sbrs	r16, 4
    2796:	0d c0       	rjmp	.+26     	; 0x27b2 <__stack+0x5b3>
    2798:	fe 01       	movw	r30, r28
    279a:	ec 0d       	add	r30, r12
    279c:	f1 1d       	adc	r31, r1
    279e:	80 81       	ld	r24, Z
    27a0:	80 33       	cpi	r24, 0x30	; 48
    27a2:	11 f4       	brne	.+4      	; 0x27a8 <__stack+0x5a9>
    27a4:	09 7e       	andi	r16, 0xE9	; 233
    27a6:	09 c0       	rjmp	.+18     	; 0x27ba <__stack+0x5bb>
    27a8:	02 ff       	sbrs	r16, 2
    27aa:	06 c0       	rjmp	.+12     	; 0x27b8 <__stack+0x5b9>
    27ac:	d3 94       	inc	r13
    27ae:	d3 94       	inc	r13
    27b0:	04 c0       	rjmp	.+8      	; 0x27ba <__stack+0x5bb>
    27b2:	80 2f       	mov	r24, r16
    27b4:	86 78       	andi	r24, 0x86	; 134
    27b6:	09 f0       	breq	.+2      	; 0x27ba <__stack+0x5bb>
    27b8:	d3 94       	inc	r13
    27ba:	03 fd       	sbrc	r16, 3
    27bc:	10 c0       	rjmp	.+32     	; 0x27de <__stack+0x5df>
    27be:	00 ff       	sbrs	r16, 0
    27c0:	06 c0       	rjmp	.+12     	; 0x27ce <__stack+0x5cf>
    27c2:	1c 2d       	mov	r17, r12
    27c4:	d5 14       	cp	r13, r5
    27c6:	78 f4       	brcc	.+30     	; 0x27e6 <__stack+0x5e7>
    27c8:	15 0d       	add	r17, r5
    27ca:	1d 19       	sub	r17, r13
    27cc:	0c c0       	rjmp	.+24     	; 0x27e6 <__stack+0x5e7>
    27ce:	d5 14       	cp	r13, r5
    27d0:	50 f4       	brcc	.+20     	; 0x27e6 <__stack+0x5e7>
    27d2:	b7 01       	movw	r22, r14
    27d4:	80 e2       	ldi	r24, 0x20	; 32
    27d6:	90 e0       	ldi	r25, 0x00	; 0
    27d8:	13 d2       	rcall	.+1062   	; 0x2c00 <fputc>
    27da:	d3 94       	inc	r13
    27dc:	f8 cf       	rjmp	.-16     	; 0x27ce <__stack+0x5cf>
    27de:	d5 14       	cp	r13, r5
    27e0:	10 f4       	brcc	.+4      	; 0x27e6 <__stack+0x5e7>
    27e2:	5d 18       	sub	r5, r13
    27e4:	01 c0       	rjmp	.+2      	; 0x27e8 <__stack+0x5e9>
    27e6:	51 2c       	mov	r5, r1
    27e8:	04 ff       	sbrs	r16, 4
    27ea:	0f c0       	rjmp	.+30     	; 0x280a <__stack+0x60b>
    27ec:	b7 01       	movw	r22, r14
    27ee:	80 e3       	ldi	r24, 0x30	; 48
    27f0:	90 e0       	ldi	r25, 0x00	; 0
    27f2:	06 d2       	rcall	.+1036   	; 0x2c00 <fputc>
    27f4:	02 ff       	sbrs	r16, 2
    27f6:	16 c0       	rjmp	.+44     	; 0x2824 <__stack+0x625>
    27f8:	01 fd       	sbrc	r16, 1
    27fa:	03 c0       	rjmp	.+6      	; 0x2802 <__stack+0x603>
    27fc:	88 e7       	ldi	r24, 0x78	; 120
    27fe:	90 e0       	ldi	r25, 0x00	; 0
    2800:	02 c0       	rjmp	.+4      	; 0x2806 <__stack+0x607>
    2802:	88 e5       	ldi	r24, 0x58	; 88
    2804:	90 e0       	ldi	r25, 0x00	; 0
    2806:	b7 01       	movw	r22, r14
    2808:	0c c0       	rjmp	.+24     	; 0x2822 <__stack+0x623>
    280a:	80 2f       	mov	r24, r16
    280c:	86 78       	andi	r24, 0x86	; 134
    280e:	51 f0       	breq	.+20     	; 0x2824 <__stack+0x625>
    2810:	01 ff       	sbrs	r16, 1
    2812:	02 c0       	rjmp	.+4      	; 0x2818 <__stack+0x619>
    2814:	8b e2       	ldi	r24, 0x2B	; 43
    2816:	01 c0       	rjmp	.+2      	; 0x281a <__stack+0x61b>
    2818:	80 e2       	ldi	r24, 0x20	; 32
    281a:	07 fd       	sbrc	r16, 7
    281c:	8d e2       	ldi	r24, 0x2D	; 45
    281e:	b7 01       	movw	r22, r14
    2820:	90 e0       	ldi	r25, 0x00	; 0
    2822:	ee d1       	rcall	.+988    	; 0x2c00 <fputc>
    2824:	c1 16       	cp	r12, r17
    2826:	30 f4       	brcc	.+12     	; 0x2834 <__stack+0x635>
    2828:	b7 01       	movw	r22, r14
    282a:	80 e3       	ldi	r24, 0x30	; 48
    282c:	90 e0       	ldi	r25, 0x00	; 0
    282e:	e8 d1       	rcall	.+976    	; 0x2c00 <fputc>
    2830:	11 50       	subi	r17, 0x01	; 1
    2832:	f8 cf       	rjmp	.-16     	; 0x2824 <__stack+0x625>
    2834:	ca 94       	dec	r12
    2836:	f3 01       	movw	r30, r6
    2838:	ec 0d       	add	r30, r12
    283a:	f1 1d       	adc	r31, r1
    283c:	80 81       	ld	r24, Z
    283e:	b7 01       	movw	r22, r14
    2840:	90 e0       	ldi	r25, 0x00	; 0
    2842:	de d1       	rcall	.+956    	; 0x2c00 <fputc>
    2844:	c1 10       	cpse	r12, r1
    2846:	f6 cf       	rjmp	.-20     	; 0x2834 <__stack+0x635>
    2848:	15 c0       	rjmp	.+42     	; 0x2874 <__stack+0x675>
    284a:	f4 e0       	ldi	r31, 0x04	; 4
    284c:	f5 15       	cp	r31, r5
    284e:	50 f5       	brcc	.+84     	; 0x28a4 <__stack+0x6a5>
    2850:	84 e0       	ldi	r24, 0x04	; 4
    2852:	58 1a       	sub	r5, r24
    2854:	93 fe       	sbrs	r9, 3
    2856:	1e c0       	rjmp	.+60     	; 0x2894 <__stack+0x695>
    2858:	01 11       	cpse	r16, r1
    285a:	25 c0       	rjmp	.+74     	; 0x28a6 <__stack+0x6a7>
    285c:	2c 85       	ldd	r18, Y+12	; 0x0c
    285e:	23 ff       	sbrs	r18, 3
    2860:	27 c0       	rjmp	.+78     	; 0x28b0 <__stack+0x6b1>
    2862:	04 ef       	ldi	r16, 0xF4	; 244
    2864:	10 e0       	ldi	r17, 0x00	; 0
    2866:	39 2d       	mov	r19, r9
    2868:	30 71       	andi	r19, 0x10	; 16
    286a:	93 2e       	mov	r9, r19
    286c:	f8 01       	movw	r30, r16
    286e:	84 91       	lpm	r24, Z
    2870:	81 11       	cpse	r24, r1
    2872:	21 c0       	rjmp	.+66     	; 0x28b6 <__stack+0x6b7>
    2874:	55 20       	and	r5, r5
    2876:	09 f4       	brne	.+2      	; 0x287a <__stack+0x67b>
    2878:	fc cc       	rjmp	.-1544   	; 0x2272 <__stack+0x73>
    287a:	b7 01       	movw	r22, r14
    287c:	80 e2       	ldi	r24, 0x20	; 32
    287e:	90 e0       	ldi	r25, 0x00	; 0
    2880:	bf d1       	rcall	.+894    	; 0x2c00 <fputc>
    2882:	5a 94       	dec	r5
    2884:	f7 cf       	rjmp	.-18     	; 0x2874 <__stack+0x675>
    2886:	f7 01       	movw	r30, r14
    2888:	86 81       	ldd	r24, Z+6	; 0x06
    288a:	97 81       	ldd	r25, Z+7	; 0x07
    288c:	23 c0       	rjmp	.+70     	; 0x28d4 <__stack+0x6d5>
    288e:	8f ef       	ldi	r24, 0xFF	; 255
    2890:	9f ef       	ldi	r25, 0xFF	; 255
    2892:	20 c0       	rjmp	.+64     	; 0x28d4 <__stack+0x6d5>
    2894:	b7 01       	movw	r22, r14
    2896:	80 e2       	ldi	r24, 0x20	; 32
    2898:	90 e0       	ldi	r25, 0x00	; 0
    289a:	b2 d1       	rcall	.+868    	; 0x2c00 <fputc>
    289c:	5a 94       	dec	r5
    289e:	51 10       	cpse	r5, r1
    28a0:	f9 cf       	rjmp	.-14     	; 0x2894 <__stack+0x695>
    28a2:	da cf       	rjmp	.-76     	; 0x2858 <__stack+0x659>
    28a4:	51 2c       	mov	r5, r1
    28a6:	b7 01       	movw	r22, r14
    28a8:	80 2f       	mov	r24, r16
    28aa:	90 e0       	ldi	r25, 0x00	; 0
    28ac:	a9 d1       	rcall	.+850    	; 0x2c00 <fputc>
    28ae:	d6 cf       	rjmp	.-84     	; 0x285c <__stack+0x65d>
    28b0:	08 ef       	ldi	r16, 0xF8	; 248
    28b2:	10 e0       	ldi	r17, 0x00	; 0
    28b4:	d8 cf       	rjmp	.-80     	; 0x2866 <__stack+0x667>
    28b6:	91 10       	cpse	r9, r1
    28b8:	80 52       	subi	r24, 0x20	; 32
    28ba:	b7 01       	movw	r22, r14
    28bc:	90 e0       	ldi	r25, 0x00	; 0
    28be:	a0 d1       	rcall	.+832    	; 0x2c00 <fputc>
    28c0:	0f 5f       	subi	r16, 0xFF	; 255
    28c2:	1f 4f       	sbci	r17, 0xFF	; 255
    28c4:	d3 cf       	rjmp	.-90     	; 0x286c <__stack+0x66d>
    28c6:	23 e0       	ldi	r18, 0x03	; 3
    28c8:	25 15       	cp	r18, r5
    28ca:	10 f4       	brcc	.+4      	; 0x28d0 <__stack+0x6d1>
    28cc:	83 e0       	ldi	r24, 0x03	; 3
    28ce:	c1 cf       	rjmp	.-126    	; 0x2852 <__stack+0x653>
    28d0:	51 2c       	mov	r5, r1
    28d2:	c4 cf       	rjmp	.-120    	; 0x285c <__stack+0x65d>
    28d4:	60 96       	adiw	r28, 0x10	; 16
    28d6:	0f b6       	in	r0, 0x3f	; 63
    28d8:	f8 94       	cli
    28da:	de bf       	out	0x3e, r29	; 62
    28dc:	0f be       	out	0x3f, r0	; 63
    28de:	cd bf       	out	0x3d, r28	; 61
    28e0:	df 91       	pop	r29
    28e2:	cf 91       	pop	r28
    28e4:	1f 91       	pop	r17
    28e6:	0f 91       	pop	r16
    28e8:	ff 90       	pop	r15
    28ea:	ef 90       	pop	r14
    28ec:	df 90       	pop	r13
    28ee:	cf 90       	pop	r12
    28f0:	bf 90       	pop	r11
    28f2:	af 90       	pop	r10
    28f4:	9f 90       	pop	r9
    28f6:	8f 90       	pop	r8
    28f8:	7f 90       	pop	r7
    28fa:	6f 90       	pop	r6
    28fc:	5f 90       	pop	r5
    28fe:	4f 90       	pop	r4
    2900:	3f 90       	pop	r3
    2902:	2f 90       	pop	r2
    2904:	08 95       	ret

00002906 <__divmodhi4>:
    2906:	97 fb       	bst	r25, 7
    2908:	07 2e       	mov	r0, r23
    290a:	16 f4       	brtc	.+4      	; 0x2910 <__divmodhi4+0xa>
    290c:	00 94       	com	r0
    290e:	06 d0       	rcall	.+12     	; 0x291c <__divmodhi4_neg1>
    2910:	77 fd       	sbrc	r23, 7
    2912:	08 d0       	rcall	.+16     	; 0x2924 <__divmodhi4_neg2>
    2914:	13 d0       	rcall	.+38     	; 0x293c <__udivmodhi4>
    2916:	07 fc       	sbrc	r0, 7
    2918:	05 d0       	rcall	.+10     	; 0x2924 <__divmodhi4_neg2>
    291a:	3e f4       	brtc	.+14     	; 0x292a <__divmodhi4_exit>

0000291c <__divmodhi4_neg1>:
    291c:	90 95       	com	r25
    291e:	81 95       	neg	r24
    2920:	9f 4f       	sbci	r25, 0xFF	; 255
    2922:	08 95       	ret

00002924 <__divmodhi4_neg2>:
    2924:	70 95       	com	r23
    2926:	61 95       	neg	r22
    2928:	7f 4f       	sbci	r23, 0xFF	; 255

0000292a <__divmodhi4_exit>:
    292a:	08 95       	ret

0000292c <__tablejump2__>:
    292c:	ee 0f       	add	r30, r30
    292e:	ff 1f       	adc	r31, r31
    2930:	88 1f       	adc	r24, r24
    2932:	8b bf       	out	0x3b, r24	; 59
    2934:	07 90       	elpm	r0, Z+
    2936:	f6 91       	elpm	r31, Z
    2938:	e0 2d       	mov	r30, r0
    293a:	19 94       	eijmp

0000293c <__udivmodhi4>:
    293c:	aa 1b       	sub	r26, r26
    293e:	bb 1b       	sub	r27, r27
    2940:	51 e1       	ldi	r21, 0x11	; 17
    2942:	07 c0       	rjmp	.+14     	; 0x2952 <__udivmodhi4_ep>

00002944 <__udivmodhi4_loop>:
    2944:	aa 1f       	adc	r26, r26
    2946:	bb 1f       	adc	r27, r27
    2948:	a6 17       	cp	r26, r22
    294a:	b7 07       	cpc	r27, r23
    294c:	10 f0       	brcs	.+4      	; 0x2952 <__udivmodhi4_ep>
    294e:	a6 1b       	sub	r26, r22
    2950:	b7 0b       	sbc	r27, r23

00002952 <__udivmodhi4_ep>:
    2952:	88 1f       	adc	r24, r24
    2954:	99 1f       	adc	r25, r25
    2956:	5a 95       	dec	r21
    2958:	a9 f7       	brne	.-22     	; 0x2944 <__udivmodhi4_loop>
    295a:	80 95       	com	r24
    295c:	90 95       	com	r25
    295e:	bc 01       	movw	r22, r24
    2960:	cd 01       	movw	r24, r26
    2962:	08 95       	ret

00002964 <atoi>:
    2964:	fc 01       	movw	r30, r24
    2966:	88 27       	eor	r24, r24
    2968:	99 27       	eor	r25, r25
    296a:	e8 94       	clt
    296c:	21 91       	ld	r18, Z+
    296e:	20 32       	cpi	r18, 0x20	; 32
    2970:	e9 f3       	breq	.-6      	; 0x296c <atoi+0x8>
    2972:	29 30       	cpi	r18, 0x09	; 9
    2974:	10 f0       	brcs	.+4      	; 0x297a <atoi+0x16>
    2976:	2e 30       	cpi	r18, 0x0E	; 14
    2978:	c8 f3       	brcs	.-14     	; 0x296c <atoi+0x8>
    297a:	2b 32       	cpi	r18, 0x2B	; 43
    297c:	39 f0       	breq	.+14     	; 0x298c <atoi+0x28>
    297e:	2d 32       	cpi	r18, 0x2D	; 45
    2980:	31 f4       	brne	.+12     	; 0x298e <atoi+0x2a>
    2982:	68 94       	set
    2984:	03 c0       	rjmp	.+6      	; 0x298c <atoi+0x28>
    2986:	34 d1       	rcall	.+616    	; 0x2bf0 <__mulhi_const_10>
    2988:	82 0f       	add	r24, r18
    298a:	91 1d       	adc	r25, r1
    298c:	21 91       	ld	r18, Z+
    298e:	20 53       	subi	r18, 0x30	; 48
    2990:	2a 30       	cpi	r18, 0x0A	; 10
    2992:	c8 f3       	brcs	.-14     	; 0x2986 <atoi+0x22>
    2994:	1e f4       	brtc	.+6      	; 0x299c <atoi+0x38>
    2996:	90 95       	com	r25
    2998:	81 95       	neg	r24
    299a:	9f 4f       	sbci	r25, 0xFF	; 255
    299c:	08 95       	ret

0000299e <atol>:
    299e:	1f 93       	push	r17
    29a0:	fc 01       	movw	r30, r24
    29a2:	99 27       	eor	r25, r25
    29a4:	88 27       	eor	r24, r24
    29a6:	bc 01       	movw	r22, r24
    29a8:	e8 94       	clt
    29aa:	11 91       	ld	r17, Z+
    29ac:	10 32       	cpi	r17, 0x20	; 32
    29ae:	e9 f3       	breq	.-6      	; 0x29aa <atol+0xc>
    29b0:	19 30       	cpi	r17, 0x09	; 9
    29b2:	10 f0       	brcs	.+4      	; 0x29b8 <atol+0x1a>
    29b4:	1e 30       	cpi	r17, 0x0E	; 14
    29b6:	c8 f3       	brcs	.-14     	; 0x29aa <atol+0xc>
    29b8:	1b 32       	cpi	r17, 0x2B	; 43
    29ba:	49 f0       	breq	.+18     	; 0x29ce <atol+0x30>
    29bc:	1d 32       	cpi	r17, 0x2D	; 45
    29be:	41 f4       	brne	.+16     	; 0x29d0 <atol+0x32>
    29c0:	68 94       	set
    29c2:	05 c0       	rjmp	.+10     	; 0x29ce <atol+0x30>
    29c4:	00 d1       	rcall	.+512    	; 0x2bc6 <__mulsi_const_10>
    29c6:	61 0f       	add	r22, r17
    29c8:	71 1d       	adc	r23, r1
    29ca:	81 1d       	adc	r24, r1
    29cc:	91 1d       	adc	r25, r1
    29ce:	11 91       	ld	r17, Z+
    29d0:	10 53       	subi	r17, 0x30	; 48
    29d2:	1a 30       	cpi	r17, 0x0A	; 10
    29d4:	b8 f3       	brcs	.-18     	; 0x29c4 <atol+0x26>
    29d6:	3e f4       	brtc	.+14     	; 0x29e6 <atol+0x48>
    29d8:	90 95       	com	r25
    29da:	80 95       	com	r24
    29dc:	70 95       	com	r23
    29de:	61 95       	neg	r22
    29e0:	7f 4f       	sbci	r23, 0xFF	; 255
    29e2:	8f 4f       	sbci	r24, 0xFF	; 255
    29e4:	9f 4f       	sbci	r25, 0xFF	; 255
    29e6:	1f 91       	pop	r17
    29e8:	08 95       	ret

000029ea <__ftoa_engine>:
    29ea:	28 30       	cpi	r18, 0x08	; 8
    29ec:	08 f0       	brcs	.+2      	; 0x29f0 <__ftoa_engine+0x6>
    29ee:	27 e0       	ldi	r18, 0x07	; 7
    29f0:	33 27       	eor	r19, r19
    29f2:	da 01       	movw	r26, r20
    29f4:	99 0f       	add	r25, r25
    29f6:	31 1d       	adc	r19, r1
    29f8:	87 fd       	sbrc	r24, 7
    29fa:	91 60       	ori	r25, 0x01	; 1
    29fc:	00 96       	adiw	r24, 0x00	; 0
    29fe:	61 05       	cpc	r22, r1
    2a00:	71 05       	cpc	r23, r1
    2a02:	39 f4       	brne	.+14     	; 0x2a12 <__ftoa_engine+0x28>
    2a04:	32 60       	ori	r19, 0x02	; 2
    2a06:	2e 5f       	subi	r18, 0xFE	; 254
    2a08:	3d 93       	st	X+, r19
    2a0a:	30 e3       	ldi	r19, 0x30	; 48
    2a0c:	2a 95       	dec	r18
    2a0e:	e1 f7       	brne	.-8      	; 0x2a08 <__ftoa_engine+0x1e>
    2a10:	08 95       	ret
    2a12:	9f 3f       	cpi	r25, 0xFF	; 255
    2a14:	30 f0       	brcs	.+12     	; 0x2a22 <__ftoa_engine+0x38>
    2a16:	80 38       	cpi	r24, 0x80	; 128
    2a18:	71 05       	cpc	r23, r1
    2a1a:	61 05       	cpc	r22, r1
    2a1c:	09 f0       	breq	.+2      	; 0x2a20 <__ftoa_engine+0x36>
    2a1e:	3c 5f       	subi	r19, 0xFC	; 252
    2a20:	3c 5f       	subi	r19, 0xFC	; 252
    2a22:	3d 93       	st	X+, r19
    2a24:	91 30       	cpi	r25, 0x01	; 1
    2a26:	08 f0       	brcs	.+2      	; 0x2a2a <__ftoa_engine+0x40>
    2a28:	80 68       	ori	r24, 0x80	; 128
    2a2a:	91 1d       	adc	r25, r1
    2a2c:	df 93       	push	r29
    2a2e:	cf 93       	push	r28
    2a30:	1f 93       	push	r17
    2a32:	0f 93       	push	r16
    2a34:	ff 92       	push	r15
    2a36:	ef 92       	push	r14
    2a38:	19 2f       	mov	r17, r25
    2a3a:	98 7f       	andi	r25, 0xF8	; 248
    2a3c:	96 95       	lsr	r25
    2a3e:	e9 2f       	mov	r30, r25
    2a40:	96 95       	lsr	r25
    2a42:	96 95       	lsr	r25
    2a44:	e9 0f       	add	r30, r25
    2a46:	ff 27       	eor	r31, r31
    2a48:	ea 5a       	subi	r30, 0xAA	; 170
    2a4a:	fe 4f       	sbci	r31, 0xFE	; 254
    2a4c:	99 27       	eor	r25, r25
    2a4e:	33 27       	eor	r19, r19
    2a50:	ee 24       	eor	r14, r14
    2a52:	ff 24       	eor	r15, r15
    2a54:	a7 01       	movw	r20, r14
    2a56:	e7 01       	movw	r28, r14
    2a58:	05 90       	lpm	r0, Z+
    2a5a:	08 94       	sec
    2a5c:	07 94       	ror	r0
    2a5e:	28 f4       	brcc	.+10     	; 0x2a6a <__ftoa_engine+0x80>
    2a60:	36 0f       	add	r19, r22
    2a62:	e7 1e       	adc	r14, r23
    2a64:	f8 1e       	adc	r15, r24
    2a66:	49 1f       	adc	r20, r25
    2a68:	51 1d       	adc	r21, r1
    2a6a:	66 0f       	add	r22, r22
    2a6c:	77 1f       	adc	r23, r23
    2a6e:	88 1f       	adc	r24, r24
    2a70:	99 1f       	adc	r25, r25
    2a72:	06 94       	lsr	r0
    2a74:	a1 f7       	brne	.-24     	; 0x2a5e <__ftoa_engine+0x74>
    2a76:	05 90       	lpm	r0, Z+
    2a78:	07 94       	ror	r0
    2a7a:	28 f4       	brcc	.+10     	; 0x2a86 <__ftoa_engine+0x9c>
    2a7c:	e7 0e       	add	r14, r23
    2a7e:	f8 1e       	adc	r15, r24
    2a80:	49 1f       	adc	r20, r25
    2a82:	56 1f       	adc	r21, r22
    2a84:	c1 1d       	adc	r28, r1
    2a86:	77 0f       	add	r23, r23
    2a88:	88 1f       	adc	r24, r24
    2a8a:	99 1f       	adc	r25, r25
    2a8c:	66 1f       	adc	r22, r22
    2a8e:	06 94       	lsr	r0
    2a90:	a1 f7       	brne	.-24     	; 0x2a7a <__ftoa_engine+0x90>
    2a92:	05 90       	lpm	r0, Z+
    2a94:	07 94       	ror	r0
    2a96:	28 f4       	brcc	.+10     	; 0x2aa2 <__ftoa_engine+0xb8>
    2a98:	f8 0e       	add	r15, r24
    2a9a:	49 1f       	adc	r20, r25
    2a9c:	56 1f       	adc	r21, r22
    2a9e:	c7 1f       	adc	r28, r23
    2aa0:	d1 1d       	adc	r29, r1
    2aa2:	88 0f       	add	r24, r24
    2aa4:	99 1f       	adc	r25, r25
    2aa6:	66 1f       	adc	r22, r22
    2aa8:	77 1f       	adc	r23, r23
    2aaa:	06 94       	lsr	r0
    2aac:	a1 f7       	brne	.-24     	; 0x2a96 <__ftoa_engine+0xac>
    2aae:	05 90       	lpm	r0, Z+
    2ab0:	07 94       	ror	r0
    2ab2:	20 f4       	brcc	.+8      	; 0x2abc <__ftoa_engine+0xd2>
    2ab4:	49 0f       	add	r20, r25
    2ab6:	56 1f       	adc	r21, r22
    2ab8:	c7 1f       	adc	r28, r23
    2aba:	d8 1f       	adc	r29, r24
    2abc:	99 0f       	add	r25, r25
    2abe:	66 1f       	adc	r22, r22
    2ac0:	77 1f       	adc	r23, r23
    2ac2:	88 1f       	adc	r24, r24
    2ac4:	06 94       	lsr	r0
    2ac6:	a9 f7       	brne	.-22     	; 0x2ab2 <__ftoa_engine+0xc8>
    2ac8:	84 91       	lpm	r24, Z
    2aca:	10 95       	com	r17
    2acc:	17 70       	andi	r17, 0x07	; 7
    2ace:	41 f0       	breq	.+16     	; 0x2ae0 <__ftoa_engine+0xf6>
    2ad0:	d6 95       	lsr	r29
    2ad2:	c7 95       	ror	r28
    2ad4:	57 95       	ror	r21
    2ad6:	47 95       	ror	r20
    2ad8:	f7 94       	ror	r15
    2ada:	e7 94       	ror	r14
    2adc:	1a 95       	dec	r17
    2ade:	c1 f7       	brne	.-16     	; 0x2ad0 <__ftoa_engine+0xe6>
    2ae0:	ec ef       	ldi	r30, 0xFC	; 252
    2ae2:	f0 e0       	ldi	r31, 0x00	; 0
    2ae4:	68 94       	set
    2ae6:	15 90       	lpm	r1, Z+
    2ae8:	15 91       	lpm	r17, Z+
    2aea:	35 91       	lpm	r19, Z+
    2aec:	65 91       	lpm	r22, Z+
    2aee:	95 91       	lpm	r25, Z+
    2af0:	05 90       	lpm	r0, Z+
    2af2:	7f e2       	ldi	r23, 0x2F	; 47
    2af4:	73 95       	inc	r23
    2af6:	e1 18       	sub	r14, r1
    2af8:	f1 0a       	sbc	r15, r17
    2afa:	43 0b       	sbc	r20, r19
    2afc:	56 0b       	sbc	r21, r22
    2afe:	c9 0b       	sbc	r28, r25
    2b00:	d0 09       	sbc	r29, r0
    2b02:	c0 f7       	brcc	.-16     	; 0x2af4 <__ftoa_engine+0x10a>
    2b04:	e1 0c       	add	r14, r1
    2b06:	f1 1e       	adc	r15, r17
    2b08:	43 1f       	adc	r20, r19
    2b0a:	56 1f       	adc	r21, r22
    2b0c:	c9 1f       	adc	r28, r25
    2b0e:	d0 1d       	adc	r29, r0
    2b10:	7e f4       	brtc	.+30     	; 0x2b30 <__ftoa_engine+0x146>
    2b12:	70 33       	cpi	r23, 0x30	; 48
    2b14:	11 f4       	brne	.+4      	; 0x2b1a <__ftoa_engine+0x130>
    2b16:	8a 95       	dec	r24
    2b18:	e6 cf       	rjmp	.-52     	; 0x2ae6 <__ftoa_engine+0xfc>
    2b1a:	e8 94       	clt
    2b1c:	01 50       	subi	r16, 0x01	; 1
    2b1e:	30 f0       	brcs	.+12     	; 0x2b2c <__ftoa_engine+0x142>
    2b20:	08 0f       	add	r16, r24
    2b22:	0a f4       	brpl	.+2      	; 0x2b26 <__ftoa_engine+0x13c>
    2b24:	00 27       	eor	r16, r16
    2b26:	02 17       	cp	r16, r18
    2b28:	08 f4       	brcc	.+2      	; 0x2b2c <__ftoa_engine+0x142>
    2b2a:	20 2f       	mov	r18, r16
    2b2c:	23 95       	inc	r18
    2b2e:	02 2f       	mov	r16, r18
    2b30:	7a 33       	cpi	r23, 0x3A	; 58
    2b32:	28 f0       	brcs	.+10     	; 0x2b3e <__ftoa_engine+0x154>
    2b34:	79 e3       	ldi	r23, 0x39	; 57
    2b36:	7d 93       	st	X+, r23
    2b38:	2a 95       	dec	r18
    2b3a:	e9 f7       	brne	.-6      	; 0x2b36 <__ftoa_engine+0x14c>
    2b3c:	10 c0       	rjmp	.+32     	; 0x2b5e <__ftoa_engine+0x174>
    2b3e:	7d 93       	st	X+, r23
    2b40:	2a 95       	dec	r18
    2b42:	89 f6       	brne	.-94     	; 0x2ae6 <__ftoa_engine+0xfc>
    2b44:	06 94       	lsr	r0
    2b46:	97 95       	ror	r25
    2b48:	67 95       	ror	r22
    2b4a:	37 95       	ror	r19
    2b4c:	17 95       	ror	r17
    2b4e:	17 94       	ror	r1
    2b50:	e1 18       	sub	r14, r1
    2b52:	f1 0a       	sbc	r15, r17
    2b54:	43 0b       	sbc	r20, r19
    2b56:	56 0b       	sbc	r21, r22
    2b58:	c9 0b       	sbc	r28, r25
    2b5a:	d0 09       	sbc	r29, r0
    2b5c:	98 f0       	brcs	.+38     	; 0x2b84 <__ftoa_engine+0x19a>
    2b5e:	23 95       	inc	r18
    2b60:	7e 91       	ld	r23, -X
    2b62:	73 95       	inc	r23
    2b64:	7a 33       	cpi	r23, 0x3A	; 58
    2b66:	08 f0       	brcs	.+2      	; 0x2b6a <__ftoa_engine+0x180>
    2b68:	70 e3       	ldi	r23, 0x30	; 48
    2b6a:	7c 93       	st	X, r23
    2b6c:	20 13       	cpse	r18, r16
    2b6e:	b8 f7       	brcc	.-18     	; 0x2b5e <__ftoa_engine+0x174>
    2b70:	7e 91       	ld	r23, -X
    2b72:	70 61       	ori	r23, 0x10	; 16
    2b74:	7d 93       	st	X+, r23
    2b76:	30 f0       	brcs	.+12     	; 0x2b84 <__ftoa_engine+0x19a>
    2b78:	83 95       	inc	r24
    2b7a:	71 e3       	ldi	r23, 0x31	; 49
    2b7c:	7d 93       	st	X+, r23
    2b7e:	70 e3       	ldi	r23, 0x30	; 48
    2b80:	2a 95       	dec	r18
    2b82:	e1 f7       	brne	.-8      	; 0x2b7c <__ftoa_engine+0x192>
    2b84:	11 24       	eor	r1, r1
    2b86:	ef 90       	pop	r14
    2b88:	ff 90       	pop	r15
    2b8a:	0f 91       	pop	r16
    2b8c:	1f 91       	pop	r17
    2b8e:	cf 91       	pop	r28
    2b90:	df 91       	pop	r29
    2b92:	99 27       	eor	r25, r25
    2b94:	87 fd       	sbrc	r24, 7
    2b96:	90 95       	com	r25
    2b98:	08 95       	ret

00002b9a <strnlen_P>:
    2b9a:	fc 01       	movw	r30, r24
    2b9c:	05 90       	lpm	r0, Z+
    2b9e:	61 50       	subi	r22, 0x01	; 1
    2ba0:	70 40       	sbci	r23, 0x00	; 0
    2ba2:	01 10       	cpse	r0, r1
    2ba4:	d8 f7       	brcc	.-10     	; 0x2b9c <strnlen_P+0x2>
    2ba6:	80 95       	com	r24
    2ba8:	90 95       	com	r25
    2baa:	8e 0f       	add	r24, r30
    2bac:	9f 1f       	adc	r25, r31
    2bae:	08 95       	ret

00002bb0 <strnlen>:
    2bb0:	fc 01       	movw	r30, r24
    2bb2:	61 50       	subi	r22, 0x01	; 1
    2bb4:	70 40       	sbci	r23, 0x00	; 0
    2bb6:	01 90       	ld	r0, Z+
    2bb8:	01 10       	cpse	r0, r1
    2bba:	d8 f7       	brcc	.-10     	; 0x2bb2 <strnlen+0x2>
    2bbc:	80 95       	com	r24
    2bbe:	90 95       	com	r25
    2bc0:	8e 0f       	add	r24, r30
    2bc2:	9f 1f       	adc	r25, r31
    2bc4:	08 95       	ret

00002bc6 <__mulsi_const_10>:
    2bc6:	59 2f       	mov	r21, r25
    2bc8:	48 2f       	mov	r20, r24
    2bca:	37 2f       	mov	r19, r23
    2bcc:	26 2f       	mov	r18, r22
    2bce:	66 0f       	add	r22, r22
    2bd0:	77 1f       	adc	r23, r23
    2bd2:	88 1f       	adc	r24, r24
    2bd4:	99 1f       	adc	r25, r25
    2bd6:	66 0f       	add	r22, r22
    2bd8:	77 1f       	adc	r23, r23
    2bda:	88 1f       	adc	r24, r24
    2bdc:	99 1f       	adc	r25, r25
    2bde:	62 0f       	add	r22, r18
    2be0:	73 1f       	adc	r23, r19
    2be2:	84 1f       	adc	r24, r20
    2be4:	95 1f       	adc	r25, r21
    2be6:	66 0f       	add	r22, r22
    2be8:	77 1f       	adc	r23, r23
    2bea:	88 1f       	adc	r24, r24
    2bec:	99 1f       	adc	r25, r25
    2bee:	08 95       	ret

00002bf0 <__mulhi_const_10>:
    2bf0:	7a e0       	ldi	r23, 0x0A	; 10
    2bf2:	97 9f       	mul	r25, r23
    2bf4:	90 2d       	mov	r25, r0
    2bf6:	87 9f       	mul	r24, r23
    2bf8:	80 2d       	mov	r24, r0
    2bfa:	91 0d       	add	r25, r1
    2bfc:	11 24       	eor	r1, r1
    2bfe:	08 95       	ret

00002c00 <fputc>:
    2c00:	0f 93       	push	r16
    2c02:	1f 93       	push	r17
    2c04:	cf 93       	push	r28
    2c06:	df 93       	push	r29
    2c08:	fb 01       	movw	r30, r22
    2c0a:	23 81       	ldd	r18, Z+3	; 0x03
    2c0c:	21 fd       	sbrc	r18, 1
    2c0e:	03 c0       	rjmp	.+6      	; 0x2c16 <fputc+0x16>
    2c10:	8f ef       	ldi	r24, 0xFF	; 255
    2c12:	9f ef       	ldi	r25, 0xFF	; 255
    2c14:	2c c0       	rjmp	.+88     	; 0x2c6e <fputc+0x6e>
    2c16:	22 ff       	sbrs	r18, 2
    2c18:	16 c0       	rjmp	.+44     	; 0x2c46 <fputc+0x46>
    2c1a:	46 81       	ldd	r20, Z+6	; 0x06
    2c1c:	57 81       	ldd	r21, Z+7	; 0x07
    2c1e:	24 81       	ldd	r18, Z+4	; 0x04
    2c20:	35 81       	ldd	r19, Z+5	; 0x05
    2c22:	42 17       	cp	r20, r18
    2c24:	53 07       	cpc	r21, r19
    2c26:	44 f4       	brge	.+16     	; 0x2c38 <fputc+0x38>
    2c28:	a0 81       	ld	r26, Z
    2c2a:	b1 81       	ldd	r27, Z+1	; 0x01
    2c2c:	9d 01       	movw	r18, r26
    2c2e:	2f 5f       	subi	r18, 0xFF	; 255
    2c30:	3f 4f       	sbci	r19, 0xFF	; 255
    2c32:	31 83       	std	Z+1, r19	; 0x01
    2c34:	20 83       	st	Z, r18
    2c36:	8c 93       	st	X, r24
    2c38:	26 81       	ldd	r18, Z+6	; 0x06
    2c3a:	37 81       	ldd	r19, Z+7	; 0x07
    2c3c:	2f 5f       	subi	r18, 0xFF	; 255
    2c3e:	3f 4f       	sbci	r19, 0xFF	; 255
    2c40:	37 83       	std	Z+7, r19	; 0x07
    2c42:	26 83       	std	Z+6, r18	; 0x06
    2c44:	14 c0       	rjmp	.+40     	; 0x2c6e <fputc+0x6e>
    2c46:	8b 01       	movw	r16, r22
    2c48:	ec 01       	movw	r28, r24
    2c4a:	fb 01       	movw	r30, r22
    2c4c:	00 84       	ldd	r0, Z+8	; 0x08
    2c4e:	f1 85       	ldd	r31, Z+9	; 0x09
    2c50:	e0 2d       	mov	r30, r0
    2c52:	19 95       	eicall
    2c54:	89 2b       	or	r24, r25
    2c56:	e1 f6       	brne	.-72     	; 0x2c10 <fputc+0x10>
    2c58:	d8 01       	movw	r26, r16
    2c5a:	16 96       	adiw	r26, 0x06	; 6
    2c5c:	8d 91       	ld	r24, X+
    2c5e:	9c 91       	ld	r25, X
    2c60:	17 97       	sbiw	r26, 0x07	; 7
    2c62:	01 96       	adiw	r24, 0x01	; 1
    2c64:	17 96       	adiw	r26, 0x07	; 7
    2c66:	9c 93       	st	X, r25
    2c68:	8e 93       	st	-X, r24
    2c6a:	16 97       	sbiw	r26, 0x06	; 6
    2c6c:	ce 01       	movw	r24, r28
    2c6e:	df 91       	pop	r29
    2c70:	cf 91       	pop	r28
    2c72:	1f 91       	pop	r17
    2c74:	0f 91       	pop	r16
    2c76:	08 95       	ret

00002c78 <sprintf>:
    2c78:	0f 93       	push	r16
    2c7a:	1f 93       	push	r17
    2c7c:	cf 93       	push	r28
    2c7e:	df 93       	push	r29
    2c80:	cd b7       	in	r28, 0x3d	; 61
    2c82:	de b7       	in	r29, 0x3e	; 62
    2c84:	2e 97       	sbiw	r28, 0x0e	; 14
    2c86:	0f b6       	in	r0, 0x3f	; 63
    2c88:	f8 94       	cli
    2c8a:	de bf       	out	0x3e, r29	; 62
    2c8c:	0f be       	out	0x3f, r0	; 63
    2c8e:	cd bf       	out	0x3d, r28	; 61
    2c90:	0e 89       	ldd	r16, Y+22	; 0x16
    2c92:	1f 89       	ldd	r17, Y+23	; 0x17
    2c94:	86 e0       	ldi	r24, 0x06	; 6
    2c96:	8c 83       	std	Y+4, r24	; 0x04
    2c98:	1a 83       	std	Y+2, r17	; 0x02
    2c9a:	09 83       	std	Y+1, r16	; 0x01
    2c9c:	8f ef       	ldi	r24, 0xFF	; 255
    2c9e:	9f e7       	ldi	r25, 0x7F	; 127
    2ca0:	9e 83       	std	Y+6, r25	; 0x06
    2ca2:	8d 83       	std	Y+5, r24	; 0x05
    2ca4:	ae 01       	movw	r20, r28
    2ca6:	46 5e       	subi	r20, 0xE6	; 230
    2ca8:	5f 4f       	sbci	r21, 0xFF	; 255
    2caa:	68 8d       	ldd	r22, Y+24	; 0x18
    2cac:	79 8d       	ldd	r23, Y+25	; 0x19
    2cae:	ce 01       	movw	r24, r28
    2cb0:	01 96       	adiw	r24, 0x01	; 1
    2cb2:	a0 da       	rcall	.-2752   	; 0x21f4 <vfprintf>
    2cb4:	ef 81       	ldd	r30, Y+7	; 0x07
    2cb6:	f8 85       	ldd	r31, Y+8	; 0x08
    2cb8:	e0 0f       	add	r30, r16
    2cba:	f1 1f       	adc	r31, r17
    2cbc:	10 82       	st	Z, r1
    2cbe:	2e 96       	adiw	r28, 0x0e	; 14
    2cc0:	0f b6       	in	r0, 0x3f	; 63
    2cc2:	f8 94       	cli
    2cc4:	de bf       	out	0x3e, r29	; 62
    2cc6:	0f be       	out	0x3f, r0	; 63
    2cc8:	cd bf       	out	0x3d, r28	; 61
    2cca:	df 91       	pop	r29
    2ccc:	cf 91       	pop	r28
    2cce:	1f 91       	pop	r17
    2cd0:	0f 91       	pop	r16
    2cd2:	08 95       	ret

00002cd4 <__ultoa_invert>:
    2cd4:	fa 01       	movw	r30, r20
    2cd6:	aa 27       	eor	r26, r26
    2cd8:	28 30       	cpi	r18, 0x08	; 8
    2cda:	51 f1       	breq	.+84     	; 0x2d30 <__ultoa_invert+0x5c>
    2cdc:	20 31       	cpi	r18, 0x10	; 16
    2cde:	81 f1       	breq	.+96     	; 0x2d40 <__ultoa_invert+0x6c>
    2ce0:	e8 94       	clt
    2ce2:	6f 93       	push	r22
    2ce4:	6e 7f       	andi	r22, 0xFE	; 254
    2ce6:	6e 5f       	subi	r22, 0xFE	; 254
    2ce8:	7f 4f       	sbci	r23, 0xFF	; 255
    2cea:	8f 4f       	sbci	r24, 0xFF	; 255
    2cec:	9f 4f       	sbci	r25, 0xFF	; 255
    2cee:	af 4f       	sbci	r26, 0xFF	; 255
    2cf0:	b1 e0       	ldi	r27, 0x01	; 1
    2cf2:	3e d0       	rcall	.+124    	; 0x2d70 <__ultoa_invert+0x9c>
    2cf4:	b4 e0       	ldi	r27, 0x04	; 4
    2cf6:	3c d0       	rcall	.+120    	; 0x2d70 <__ultoa_invert+0x9c>
    2cf8:	67 0f       	add	r22, r23
    2cfa:	78 1f       	adc	r23, r24
    2cfc:	89 1f       	adc	r24, r25
    2cfe:	9a 1f       	adc	r25, r26
    2d00:	a1 1d       	adc	r26, r1
    2d02:	68 0f       	add	r22, r24
    2d04:	79 1f       	adc	r23, r25
    2d06:	8a 1f       	adc	r24, r26
    2d08:	91 1d       	adc	r25, r1
    2d0a:	a1 1d       	adc	r26, r1
    2d0c:	6a 0f       	add	r22, r26
    2d0e:	71 1d       	adc	r23, r1
    2d10:	81 1d       	adc	r24, r1
    2d12:	91 1d       	adc	r25, r1
    2d14:	a1 1d       	adc	r26, r1
    2d16:	20 d0       	rcall	.+64     	; 0x2d58 <__ultoa_invert+0x84>
    2d18:	09 f4       	brne	.+2      	; 0x2d1c <__ultoa_invert+0x48>
    2d1a:	68 94       	set
    2d1c:	3f 91       	pop	r19
    2d1e:	2a e0       	ldi	r18, 0x0A	; 10
    2d20:	26 9f       	mul	r18, r22
    2d22:	11 24       	eor	r1, r1
    2d24:	30 19       	sub	r19, r0
    2d26:	30 5d       	subi	r19, 0xD0	; 208
    2d28:	31 93       	st	Z+, r19
    2d2a:	de f6       	brtc	.-74     	; 0x2ce2 <__ultoa_invert+0xe>
    2d2c:	cf 01       	movw	r24, r30
    2d2e:	08 95       	ret
    2d30:	46 2f       	mov	r20, r22
    2d32:	47 70       	andi	r20, 0x07	; 7
    2d34:	40 5d       	subi	r20, 0xD0	; 208
    2d36:	41 93       	st	Z+, r20
    2d38:	b3 e0       	ldi	r27, 0x03	; 3
    2d3a:	0f d0       	rcall	.+30     	; 0x2d5a <__ultoa_invert+0x86>
    2d3c:	c9 f7       	brne	.-14     	; 0x2d30 <__ultoa_invert+0x5c>
    2d3e:	f6 cf       	rjmp	.-20     	; 0x2d2c <__ultoa_invert+0x58>
    2d40:	46 2f       	mov	r20, r22
    2d42:	4f 70       	andi	r20, 0x0F	; 15
    2d44:	40 5d       	subi	r20, 0xD0	; 208
    2d46:	4a 33       	cpi	r20, 0x3A	; 58
    2d48:	18 f0       	brcs	.+6      	; 0x2d50 <__ultoa_invert+0x7c>
    2d4a:	49 5d       	subi	r20, 0xD9	; 217
    2d4c:	31 fd       	sbrc	r19, 1
    2d4e:	40 52       	subi	r20, 0x20	; 32
    2d50:	41 93       	st	Z+, r20
    2d52:	02 d0       	rcall	.+4      	; 0x2d58 <__ultoa_invert+0x84>
    2d54:	a9 f7       	brne	.-22     	; 0x2d40 <__ultoa_invert+0x6c>
    2d56:	ea cf       	rjmp	.-44     	; 0x2d2c <__ultoa_invert+0x58>
    2d58:	b4 e0       	ldi	r27, 0x04	; 4
    2d5a:	a6 95       	lsr	r26
    2d5c:	97 95       	ror	r25
    2d5e:	87 95       	ror	r24
    2d60:	77 95       	ror	r23
    2d62:	67 95       	ror	r22
    2d64:	ba 95       	dec	r27
    2d66:	c9 f7       	brne	.-14     	; 0x2d5a <__ultoa_invert+0x86>
    2d68:	00 97       	sbiw	r24, 0x00	; 0
    2d6a:	61 05       	cpc	r22, r1
    2d6c:	71 05       	cpc	r23, r1
    2d6e:	08 95       	ret
    2d70:	9b 01       	movw	r18, r22
    2d72:	ac 01       	movw	r20, r24
    2d74:	0a 2e       	mov	r0, r26
    2d76:	06 94       	lsr	r0
    2d78:	57 95       	ror	r21
    2d7a:	47 95       	ror	r20
    2d7c:	37 95       	ror	r19
    2d7e:	27 95       	ror	r18
    2d80:	ba 95       	dec	r27
    2d82:	c9 f7       	brne	.-14     	; 0x2d76 <__ultoa_invert+0xa2>
    2d84:	62 0f       	add	r22, r18
    2d86:	73 1f       	adc	r23, r19
    2d88:	84 1f       	adc	r24, r20
    2d8a:	95 1f       	adc	r25, r21
    2d8c:	a0 1d       	adc	r26, r0
    2d8e:	08 95       	ret

00002d90 <_exit>:
    2d90:	f8 94       	cli

00002d92 <__stop_program>:
    2d92:	ff cf       	rjmp	.-2      	; 0x2d92 <__stop_program>
